(dp1
S'r_leg_idx_list'
p2
(lp3
I936
aI1137
aI1139
aI1140
aI1163
aI1164
aI1165
aI1166
aI1208
aI1209
aI1210
aI1221
aI1222
aI1223
aI1277
aI1278
aI1353
aI1354
aI1359
aI1360
aI1362
aI1363
aI1364
aI1453
aI1475
aI1476
aI1498
aI1514
aI1515
aI1533
aI1534
aI1539
aI1540
aI3102
aI3126
aI3127
aI3135
aI3145
aI3146
aI3148
aI3149
aI3170
aI3172
aI4318
aI4319
aI4320
aI4321
aI4322
aI4323
aI4324
aI4325
aI4333
aI4334
aI4335
aI4336
aI4337
aI4338
aI4339
aI4340
aI4356
aI4357
aI4358
aI4359
aI4360
aI4361
aI4362
aI4363
aI4364
aI4365
aI4366
aI4367
aI4369
aI4370
aI4371
aI4383
aI4384
aI4385
aI4386
aI4387
aI4388
aI4389
aI4390
aI4391
aI4392
aI4393
aI4394
aI4395
aI4396
aI4397
aI4401
aI4419
aI4420
aI4421
aI4422
aI4430
aI4431
aI4432
aI4433
aI4434
aI4435
aI4436
aI4437
aI4438
aI4439
aI4440
aI4441
aI4442
aI4443
aI4444
aI4445
aI4446
aI4447
aI4448
aI4449
aI4450
aI4451
aI4452
aI4453
aI4454
aI4455
aI4456
aI4457
aI4458
aI4459
aI4460
aI4461
aI4462
aI4463
aI4464
aI4465
aI4466
aI4467
aI4468
aI4469
aI4470
aI4471
aI4472
aI4473
aI4474
aI4475
aI4476
aI4477
aI4478
aI4479
aI4480
aI4481
aI4482
aI4483
aI4484
aI4485
aI4486
aI4487
aI4488
aI4489
aI4490
aI4491
aI4492
aI4493
aI4494
aI4495
aI4496
aI4497
aI4498
aI4499
aI4500
aI4501
aI4502
aI4503
aI4504
aI4505
aI4506
aI4507
aI4508
aI4509
aI4510
aI4511
aI4512
aI4513
aI4514
aI4515
aI4516
aI4517
aI4518
aI4519
aI4520
aI4521
aI4522
aI4523
aI4524
aI4525
aI4526
aI4527
aI4528
aI4529
aI4530
aI4531
aI4532
aI4533
aI4534
aI4535
aI4536
aI4537
aI4538
aI4539
aI4540
aI4541
aI4542
aI4543
aI4544
aI4545
aI4546
aI4547
aI4548
aI4549
aI4550
aI4551
aI4552
aI4553
aI4554
aI4555
aI4556
aI4557
aI4558
aI4559
aI4560
aI4561
aI4562
aI4563
aI4564
aI4565
aI4566
aI4567
aI4568
aI4569
aI4570
aI4571
aI4572
aI4573
aI4574
aI4575
aI4576
aI4577
aI4578
aI4579
aI4580
aI4581
aI4582
aI4583
aI4584
aI4585
aI4586
aI4587
aI4588
aI4589
aI4590
aI4591
aI4592
aI4593
aI4594
aI4595
aI4596
aI4597
aI4598
aI4599
aI4600
aI4601
aI4602
aI4603
aI4604
aI4605
aI4606
aI4607
aI4608
aI4609
aI4610
aI4611
aI4612
aI4613
aI4614
aI4615
aI4616
aI4617
aI4618
aI4619
aI4620
aI4621
aI4622
aI4623
aI4624
aI4625
aI4626
aI4627
aI4628
aI4629
aI4630
aI4631
aI4632
aI4633
aI4634
aI4635
aI4636
aI4637
aI4638
aI4639
aI4640
aI4641
aI4642
aI4643
aI4644
aI4645
aI4646
aI4647
aI4648
aI4649
aI4650
aI4651
aI4652
aI4653
aI4654
aI4655
aI4656
aI4657
aI4658
aI4659
aI4660
aI4661
aI4662
aI4663
aI4664
aI4665
aI4666
aI4667
aI4668
aI4669
aI4670
aI4671
aI4672
aI4673
aI4693
aI4704
aI4705
aI4706
aI4707
aI4708
aI4709
aI4710
aI4711
aI4712
aI4713
aI4745
aI4746
aI4757
aI4758
aI4759
aI4760
aI4802
aI4814
aI4815
aI4829
aI4834
aI4835
aI4836
aI4837
aI4838
aI4839
aI4840
aI4841
aI4842
aI4843
aI4844
aI4845
aI4846
aI4847
aI4848
aI4924
aI4925
aI4926
aI4928
aI4929
aI4930
aI4931
aI4932
aI4933
aI4934
aI4935
aI4936
aI4937
aI4938
aI4939
aI4940
aI4941
aI4942
aI4943
aI4944
aI4945
aI4946
aI4947
aI4948
aI4949
aI4950
aI4951
aI4952
aI4969
aI4970
aI4971
aI4972
aI4973
aI4986
aI4987
aI4988
aI4989
aI4990
aI4991
aI4992
aI4993
aI4994
aI4995
aI4996
aI4997
aI4998
aI4999
aI5000
aI5001
aI5002
aI5003
aI5004
aI5005
aI6504
aI6505
aI6507
aI6511
aI6512
aI6513
aI6519
aI6546
aI6547
aI6548
aI6552
aI6553
aI6555
aI6556
aI6562
aI6563
aI6564
aI6565
aI6574
aI6575
aI6576
aI6577
aI6578
aI6579
aI6580
aI6581
aI6582
aI6583
aI6584
aI6585
aI6586
aI6587
aI6588
aI6589
aI6590
aI6591
aI6592
aI6593
aI6594
aI6595
aI6596
aI6597
aI6598
aI6599
aI6600
aI6601
aI6602
aI6603
aI6604
aI6605
aI6606
aI6607
aI6608
aI6609
aI6610
aI6611
aI6612
aI6613
aI6614
aI6615
aI6616
aI6617
aI6618
aI6619
aI6620
aI6621
aI6622
aI6623
aI6624
aI6625
aI6626
aI6627
aI6628
aI6629
aI6630
aI6631
aI6632
aI6633
aI6634
aI6635
aI6636
aI6637
aI6638
aI6639
aI6640
aI6641
aI6642
aI6643
aI6644
aI6645
aI6646
aI6647
aI6648
aI6649
aI6650
aI6651
aI6652
aI6653
aI6654
aI6655
aI6656
aI6657
aI6658
aI6659
aI6660
aI6661
aI6662
aI6663
aI6664
aI6665
aI6666
aI6667
aI6668
aI6669
aI6670
aI6671
aI6672
aI6673
aI6674
aI6675
aI6676
aI6677
aI6678
aI6679
aI6680
aI6681
aI6682
aI6683
aI6684
aI6685
aI6686
aI6687
aI6688
aI6689
aI6690
aI6691
aI6692
aI6693
aI6694
aI6695
aI6696
aI6697
aI6698
aI6699
aI6700
aI6701
aI6702
aI6703
aI6704
aI6705
aI6706
aI6707
aI6708
aI6709
aI6710
aI6711
aI6712
aI6713
aI6714
aI6715
aI6716
aI6717
aI6718
aI6719
aI6720
aI6721
aI6722
aI6723
aI6724
aI6725
aI6726
aI6727
aI6728
aI6729
aI6730
aI6731
aI6732
aI6733
aI6734
aI6735
aI6736
aI6737
aI6738
aI6739
aI6740
aI6741
aI6742
aI6743
aI6744
aI6745
aI6746
aI6747
aI6748
aI6749
aI6750
aI6751
aI6752
aI6753
aI6754
aI6755
aI6756
aI6757
aI6758
aI6759
aI6760
aI6761
aI6762
aI6763
aI6764
aI6765
aI6766
aI6767
aI6768
aI6769
aI6770
aI6771
aI6772
aI6773
aI6774
aI6775
aI6776
aI6777
aI6778
aI6779
aI6780
aI6781
aI6782
aI6783
aI6784
aI6785
aI6786
aI6787
aI6788
aI6789
aI6790
aI6791
aI6792
aI6793
aI6794
aI6795
aI6796
aI6797
aI6798
aI6799
aI6800
aI6801
aI6802
aI6803
aI6804
aI6805
aI6806
aI6807
aI6808
aI6809
aI6810
aI6811
aI6812
aI6813
aI6814
aI6815
aI6816
aI6817
aI6818
aI6819
aI6820
aI6821
aI6822
aI6823
aI6824
aI6825
aI6826
aI6827
aI6828
aI6829
aI6830
aI6831
aI6832
aI6833
aI6834
aI6835
aI6836
aI6837
aI6838
aI6839
aI6840
aI6841
aI6842
aI6843
aI6844
aI6845
aI6846
aI6847
aI6848
aI6849
aI6850
aI6851
aI6852
aI6853
aI6854
aI6855
aI6856
aI6857
aI6858
aI6859
aI6860
aI6861
aI6862
aI6863
aI6864
aI6865
aI6866
aI6867
aI6868
aI6869
aI6870
aI6871
aI6872
aI6873
aI6877
asS'r_leg_face_list'
p4
(lp5
(lp6
I1
aI2
aI3
aa(lp7
I5
aI6
aI4
aa(lp8
I4
aI6
aI7
aa(lp9
I9
aI10
aI7
aa(lp10
I7
aI10
aI4
aa(lp11
I12
aI13
aI11
aa(lp12
I11
aI13
aI5
aa(lp13
I4
aI14
aI5
aa(lp14
I5
aI14
aI11
aa(lp15
I10
aI15
aI4
aa(lp16
I4
aI15
aI14
aa(lp17
I15
aI16
aI14
aa(lp18
I14
aI16
aI17
aa(lp19
I0
aI18
aI2
aa(lp20
I2
aI18
aI19
aa(lp21
I21
aI22
aI20
aa(lp22
I0
aI23
aI18
aa(lp23
I13
aI26
aI5
aa(lp24
I5
aI26
aI6
aa(lp25
I27
aI28
aI20
aa(lp26
I20
aI28
aI21
aa(lp27
I29
aI11
aI17
aa(lp28
I17
aI11
aI14
aa(lp29
I30
aI12
aI29
aa(lp30
I29
aI12
aI11
aa(lp31
I34
aI35
aI12
aa(lp32
I12
aI35
aI13
aa(lp33
I35
aI36
aI13
aa(lp34
I13
aI36
aI26
aa(lp35
I27
aI34
aI30
aa(lp36
I30
aI34
aI12
aa(lp37
I17
aI16
aI29
aa(lp38
I29
aI16
aI41
aa(lp39
I29
aI41
aI30
aa(lp40
I30
aI41
aI42
aa(lp41
I30
aI42
aI27
aa(lp42
I27
aI42
aI28
aa(lp43
I1
aI3
aI34
aa(lp44
I34
aI3
aI35
aa(lp45
I3
aI24
aI35
aa(lp46
I35
aI24
aI36
aa(lp47
I20
aI1
aI27
aa(lp48
I27
aI1
aI34
aa(lp49
I2
aI19
aI3
aa(lp50
I3
aI19
aI24
aa(lp51
I44
aI45
aI43
aa(lp52
I43
aI45
aI46
aa(lp53
I48
aI49
aI47
aa(lp54
I47
aI49
aI50
aa(lp55
I51
aI52
aI54
aa(lp56
I54
aI52
aI53
aa(lp57
I56
aI57
aI55
aa(lp58
I55
aI57
aI58
aa(lp59
I59
aI60
aI48
aa(lp60
I48
aI60
aI49
aa(lp61
I54
aI61
aI51
aa(lp62
I51
aI61
aI62
aa(lp63
I64
aI65
aI63
aa(lp64
I63
aI65
aI66
aa(lp65
I68
aI69
aI67
aa(lp66
I67
aI69
aI70
aa(lp67
I73
aI71
aI72
aa(lp68
I75
aI76
aI74
aa(lp69
I74
aI76
aI77
aa(lp70
I78
aI79
aI55
aa(lp71
I55
aI79
aI80
aa(lp72
I54
aI53
aI82
aa(lp73
I82
aI53
aI81
aa(lp74
I84
aI64
aI83
aa(lp75
I83
aI64
aI63
aa(lp76
I86
aI87
aI85
aa(lp77
I85
aI87
aI88
aa(lp78
I91
aI92
aI90
aa(lp79
I90
aI92
aI93
aa(lp80
I52
aI94
aI53
aa(lp81
I53
aI94
aI80
aa(lp82
I53
aI80
aI81
aa(lp83
I81
aI80
aI79
aa(lp84
I95
aI96
aI98
aa(lp85
I98
aI96
aI97
aa(lp86
I100
aI101
aI99
aa(lp87
I99
aI101
aI102
aa(lp88
I104
aI105
aI103
aa(lp89
I103
aI105
aI106
aa(lp90
I61
aI107
aI63
aa(lp91
I63
aI107
aI83
aa(lp92
I109
aI110
aI108
aa(lp93
I108
aI110
aI111
aa(lp94
I55
aI58
aI78
aa(lp95
I78
aI58
aI112
aa(lp96
I113
aI114
aI88
aa(lp97
I88
aI114
aI85
aa(lp98
I116
aI117
aI115
aa(lp99
I115
aI117
aI118
aa(lp100
I120
aI121
aI119
aa(lp101
I119
aI121
aI122
aa(lp102
I123
aI124
aI111
aa(lp103
I111
aI124
aI108
aa(lp104
I126
aI127
aI125
aa(lp105
I125
aI127
aI128
aa(lp106
I125
aI128
aI129
aa(lp107
I129
aI128
aI130
aa(lp108
I131
aI132
aI130
aa(lp109
I130
aI132
aI129
aa(lp110
I132
aI131
aI133
aa(lp111
I133
aI131
aI134
aa(lp112
I135
aI136
aI134
aa(lp113
I134
aI136
aI133
aa(lp114
I138
aI139
aI137
aa(lp115
I137
aI139
aI140
aa(lp116
I142
aI143
aI141
aa(lp117
I141
aI143
aI144
aa(lp118
I146
aI147
aI145
aa(lp119
I145
aI147
aI148
aa(lp120
I150
aI151
aI149
aa(lp121
I149
aI151
aI152
aa(lp122
I154
aI155
aI153
aa(lp123
I153
aI155
aI156
aa(lp124
I157
aI158
aI156
aa(lp125
I156
aI158
aI153
aa(lp126
I159
aI160
aI157
aa(lp127
I157
aI160
aI158
aa(lp128
I160
aI159
aI161
aa(lp129
I161
aI159
aI162
aa(lp130
I163
aI164
aI166
aa(lp131
I166
aI164
aI165
aa(lp132
I168
aI169
aI167
aa(lp133
I167
aI169
aI170
aa(lp134
I129
aI171
aI125
aa(lp135
I125
aI171
aI172
aa(lp136
I133
aI173
aI132
aa(lp137
I132
aI173
aI174
aa(lp138
I176
aI142
aI175
aa(lp139
I175
aI142
aI141
aa(lp140
I178
aI106
aI177
aa(lp141
I177
aI106
aI105
aa(lp142
I179
aI180
aI182
aa(lp143
I182
aI180
aI181
aa(lp144
I184
aI158
aI183
aa(lp145
I183
aI158
aI160
aa(lp146
I185
aI153
aI184
aa(lp147
I184
aI153
aI158
aa(lp148
I154
aI186
aI151
aa(lp149
I151
aI186
aI187
aa(lp150
I188
aI152
aI187
aa(lp151
I187
aI152
aI151
aa(lp152
I147
aI189
aI148
aa(lp153
I148
aI189
aI190
aa(lp154
I166
aI191
aI163
aa(lp155
I163
aI191
aI192
aa(lp156
I193
aI194
aI196
aa(lp157
I196
aI194
aI195
aa(lp158
I198
aI169
aI197
aa(lp159
I197
aI169
aI193
aa(lp160
I149
aI199
aI150
aa(lp161
I150
aI199
aI200
aa(lp162
I150
aI200
aI155
aa(lp163
I155
aI200
aI201
aa(lp164
I157
aI202
aI159
aa(lp165
I159
aI202
aI203
aa(lp166
I205
aI196
aI204
aa(lp167
I204
aI196
aI162
aa(lp168
I207
aI208
aI206
aa(lp169
I206
aI208
aI209
aa(lp170
I211
aI212
aI210
aa(lp171
I210
aI212
aI213
aa(lp172
I199
aI214
aI200
aa(lp173
I200
aI214
aI215
aa(lp174
I200
aI215
aI201
aa(lp175
I201
aI215
aI216
aa(lp176
I217
aI202
aI219
aa(lp177
I219
aI202
aI218
aa(lp178
I220
aI203
aI217
aa(lp179
I217
aI203
aI202
aa(lp180
I222
aI220
aI221
aa(lp181
I221
aI220
aI223
aa(lp182
I203
aI220
aI204
aa(lp183
I204
aI220
aI222
aa(lp184
I225
aI226
aI224
aa(lp185
I224
aI226
aI227
aa(lp186
I209
aI228
aI206
aa(lp187
I206
aI228
aI229
aa(lp188
I210
aI230
aI211
aa(lp189
I211
aI230
aI231
aa(lp190
I233
aI234
aI232
aa(lp191
I232
aI234
aI235
aa(lp192
I237
aI238
aI236
aa(lp193
I236
aI238
aI239
aa(lp194
I241
aI242
aI240
aa(lp195
I240
aI242
aI243
aa(lp196
I245
aI246
aI244
aa(lp197
I244
aI246
aI247
aa(lp198
I248
aI249
aI251
aa(lp199
I251
aI249
aI250
aa(lp200
I252
aI248
aI253
aa(lp201
I253
aI248
aI251
aa(lp202
I255
aI256
aI254
aa(lp203
I254
aI256
aI257
aa(lp204
I259
aI260
aI258
aa(lp205
I258
aI260
aI261
aa(lp206
I263
aI264
aI262
aa(lp207
I262
aI264
aI265
aa(lp208
I226
aI267
aI266
aa(lp209
I266
aI267
aI268
aa(lp210
I266
aI269
aI271
aa(lp211
I271
aI269
aI270
aa(lp212
I272
aI273
aI257
aa(lp213
I257
aI273
aI254
aa(lp214
I274
aI275
aI277
aa(lp215
I277
aI275
aI276
aa(lp216
I279
aI280
aI278
aa(lp217
I278
aI280
aI281
aa(lp218
I265
aI283
aI282
aa(lp219
I282
aI283
aI284
aa(lp220
I282
aI285
aI265
aa(lp221
I265
aI285
aI262
aa(lp222
I268
aI262
aI286
aa(lp223
I286
aI262
aI285
aa(lp224
I268
aI286
aI266
aa(lp225
I266
aI286
aI269
aa(lp226
I288
aI289
aI287
aa(lp227
I287
aI289
aI290
aa(lp228
I101
aI100
aI291
aa(lp229
I291
aI100
aI292
aa(lp230
I105
aI104
aI293
aa(lp231
I293
aI104
aI294
aa(lp232
I293
aI295
aI105
aa(lp233
I105
aI295
aI177
aa(lp234
I296
aI297
aI192
aa(lp235
I192
aI297
aI163
aa(lp236
I163
aI297
aI164
aa(lp237
I164
aI297
aI298
aa(lp238
I300
aI209
aI299
aa(lp239
I299
aI209
aI208
aa(lp240
I302
aI228
aI301
aa(lp241
I301
aI228
aI303
aa(lp242
I236
aI239
aI304
aa(lp243
I304
aI239
aI305
aa(lp244
I256
aI306
aI257
aa(lp245
I257
aI306
aI307
aa(lp246
I308
aI272
aI307
aa(lp247
I307
aI272
aI257
aa(lp248
I310
aI311
aI309
aa(lp249
I309
aI311
aI312
aa(lp250
I314
aI315
aI313
aa(lp251
I313
aI315
aI316
aa(lp252
I317
aI161
aI182
aa(lp253
I182
aI161
aI195
aa(lp254
I183
aI171
aI184
aa(lp255
I184
aI171
aI174
aa(lp256
I185
aI173
aI186
aa(lp257
I186
aI173
aI318
aa(lp258
I187
aI319
aI188
aa(lp259
I188
aI319
aI320
aa(lp260
I177
aI192
aI178
aa(lp261
I178
aI192
aI191
aa(lp262
I321
aI322
aI324
aa(lp263
I324
aI322
aI323
aa(lp264
I159
aI203
aI162
aa(lp265
I162
aI203
aI204
aa(lp266
I156
aI218
aI157
aa(lp267
I157
aI218
aI202
aa(lp268
I212
aI146
aI213
aa(lp269
I213
aI146
aI145
aa(lp270
I208
aI207
aI164
aa(lp271
I164
aI207
aI165
aa(lp272
I299
aI208
aI298
aa(lp273
I298
aI208
aI164
aa(lp274
I252
aI326
aI325
aa(lp275
I325
aI326
aI327
aa(lp276
I325
aI328
aI221
aa(lp277
I221
aI328
aI222
aa(lp278
I232
aI249
aI233
aa(lp279
I233
aI249
aI223
aa(lp280
I215
aI329
aI216
aa(lp281
I216
aI329
aI330
aa(lp282
I331
aI332
aI333
aa(lp283
I333
aI332
aI329
aa(lp284
I335
aI336
aI334
aa(lp285
I334
aI336
aI337
aa(lp286
I8
aI338
aI67
aa(lp287
I67
aI338
aI68
aa(lp288
I313
aI10
aI314
aa(lp289
I314
aI10
aI9
aa(lp290
I316
aI340
aI339
aa(lp291
I339
aI340
aI341
aa(lp292
I343
aI344
aI342
aa(lp293
I342
aI344
aI345
aa(lp294
I52
aI51
aI347
aa(lp295
I347
aI51
aI346
aa(lp296
I348
aI57
aI45
aa(lp297
I45
aI57
aI46
aa(lp298
I55
aI80
aI56
aa(lp299
I56
aI80
aI94
aa(lp300
I349
aI350
aI94
aa(lp301
I94
aI350
aI56
aa(lp302
I342
aI345
aI351
aa(lp303
I351
aI345
aI310
aa(lp304
I69
aI68
aI352
aa(lp305
I352
aI68
aI353
aa(lp306
I189
aI176
aI190
aa(lp307
I190
aI176
aI175
aa(lp308
I90
aI93
aI75
aa(lp309
I75
aI93
aI76
aa(lp310
I339
aI354
aI316
aa(lp311
I316
aI354
aI313
aa(lp312
I354
aI15
aI313
aa(lp313
I313
aI15
aI10
aa(lp314
I161
aI317
aI160
aa(lp315
I160
aI317
aI183
aa(lp316
I358
aI16
aI354
aa(lp317
I354
aI16
aI15
aa(lp318
I359
aI360
aI289
aa(lp319
I289
aI360
aI91
aa(lp320
I114
aI343
aI85
aa(lp321
I85
aI343
aI342
aa(lp322
I290
aI90
aI361
aa(lp323
I361
aI90
aI75
aa(lp324
I361
aI22
aI362
aa(lp325
I362
aI22
aI21
aa(lp326
I87
aI86
aI363
aa(lp327
I363
aI86
aI364
aa(lp328
I366
aI291
aI365
aa(lp329
I365
aI291
aI292
aa(lp330
I334
aI337
aI294
aa(lp331
I294
aI337
aI293
aa(lp332
I337
aI322
aI293
aa(lp333
I293
aI322
aI295
aa(lp334
I296
aI295
aI321
aa(lp335
I321
aI295
aI322
aa(lp336
I321
aI167
aI296
aa(lp337
I296
aI167
aI297
aa(lp338
I298
aI297
aI170
aa(lp339
I170
aI297
aI167
aa(lp340
I367
aI299
aI170
aa(lp341
I170
aI299
aI298
aa(lp342
I368
aI300
aI367
aa(lp343
I367
aI300
aI299
aa(lp344
I300
aI368
aI303
aa(lp345
I303
aI368
aI327
aa(lp346
I301
aI326
aI305
aa(lp347
I305
aI326
aI369
aa(lp348
I371
aI306
aI370
aa(lp349
I370
aI306
aI304
aa(lp350
I307
aI372
aI308
aa(lp351
I308
aI372
aI373
aa(lp352
I85
aI342
aI86
aa(lp353
I86
aI342
aI351
aa(lp354
I69
aI374
aI70
aa(lp355
I70
aI374
aI375
aa(lp356
I360
aI376
aI91
aa(lp357
I91
aI376
aI92
aa(lp358
I377
aI378
aI118
aa(lp359
I118
aI378
aI115
aa(lp360
I380
aI381
aI379
aa(lp361
I379
aI381
aI382
aa(lp362
I383
aI384
aI380
aa(lp363
I380
aI384
aI381
aa(lp364
I124
aI123
aI120
aa(lp365
I120
aI123
aI121
aa(lp366
I143
aI142
aI138
aa(lp367
I138
aI142
aI139
aa(lp368
I323
aI336
aI180
aa(lp369
I180
aI336
aI385
aa(lp370
I324
aI168
aI321
aa(lp371
I321
aI168
aI167
aa(lp372
I147
aI146
aI152
aa(lp373
I152
aI146
aI149
aa(lp374
I125
aI172
aI126
aa(lp375
I126
aI172
aI181
aa(lp376
I132
aI174
aI129
aa(lp377
I129
aI174
aI171
aa(lp378
I318
aI136
aI319
aa(lp379
I319
aI136
aI140
aa(lp380
I139
aI320
aI140
aa(lp381
I140
aI320
aI319
aa(lp382
I142
aI176
aI139
aa(lp383
I139
aI176
aI320
aa(lp384
I152
aI188
aI147
aa(lp385
I147
aI188
aI189
aa(lp386
I146
aI212
aI149
aa(lp387
I149
aI212
aI199
aa(lp388
I212
aI211
aI199
aa(lp389
I199
aI211
aI214
aa(lp390
I211
aI231
aI214
aa(lp391
I214
aI231
aI333
aa(lp392
I326
aI252
aI369
aa(lp393
I369
aI252
aI253
aa(lp394
I331
aI240
aI386
aa(lp395
I386
aI240
aI243
aa(lp396
I388
aI386
aI387
aa(lp397
I387
aI386
aI389
aa(lp398
I388
aI390
aI332
aa(lp399
I332
aI390
aI391
aa(lp400
I250
aI245
aI392
aa(lp401
I392
aI245
aI244
aa(lp402
I372
aI371
aI271
aa(lp403
I271
aI371
aI227
aa(lp404
I279
aI393
aI276
aa(lp405
I276
aI393
aI261
aa(lp406
I278
aI394
aI279
aa(lp407
I279
aI394
aI393
aa(lp408
I395
aI387
aI396
aa(lp409
I396
aI387
aI394
aa(lp410
I262
aI268
aI263
aa(lp411
I263
aI268
aI267
aa(lp412
I271
aI270
aI372
aa(lp413
I372
aI270
aI373
aa(lp414
I276
aI275
aI279
aa(lp415
I279
aI275
aI280
aa(lp416
I359
aI397
aI343
aa(lp417
I343
aI397
aI344
aa(lp418
I59
aI25
aI361
aa(lp419
I361
aI25
aI22
aa(lp420
I346
aI398
aI355
aa(lp421
I355
aI398
aI399
aa(lp422
I89
aI400
aI401
aa(lp423
I352
aI353
aI89
aa(lp424
I171
aI183
aI172
aa(lp425
I172
aI183
aI317
aa(lp426
I173
aI185
aI174
aa(lp427
I174
aI185
aI184
aa(lp428
I176
aI189
aI320
aa(lp429
I320
aI189
aI188
aa(lp430
I295
aI296
aI177
aa(lp431
I177
aI296
aI192
aa(lp432
I379
aI382
aI116
aa(lp433
I116
aI382
aI117
aa(lp434
I315
aI403
aI316
aa(lp435
I316
aI403
aI340
aa(lp436
I351
aI310
aI404
aa(lp437
I404
aI310
aI309
aa(lp438
I405
aI65
aI309
aa(lp439
I309
aI65
aI404
aa(lp440
I398
aI62
aI406
aa(lp441
I406
aI62
aI66
aa(lp442
I94
aI52
aI349
aa(lp443
I349
aI52
aI347
aa(lp444
I60
aI348
aI49
aa(lp445
I49
aI348
aI45
aa(lp446
I21
aI28
aI362
aa(lp447
I362
aI28
aI407
aa(lp448
I352
aI408
aI69
aa(lp449
I69
aI408
aI374
aa(lp450
I409
aI410
aI144
aa(lp451
I144
aI410
aI141
aa(lp452
I106
aI178
aI410
aa(lp453
I410
aI178
aI411
aa(lp454
I190
aI175
aI412
aa(lp455
I412
aI175
aI411
aa(lp456
I191
aI166
aI412
aa(lp457
I412
aI166
aI413
aa(lp458
I413
aI414
aI148
aa(lp459
I148
aI414
aI145
aa(lp460
I207
aI415
aI165
aa(lp461
I165
aI415
aI414
aa(lp462
I415
aI416
aI213
aa(lp463
I213
aI416
aI210
aa(lp464
I418
aI419
aI417
aa(lp465
I417
aI419
aI229
aa(lp466
I418
aI420
aI241
aa(lp467
I241
aI420
aI242
aa(lp468
I421
aI422
aI259
aa(lp469
I259
aI422
aI260
aa(lp470
I423
aI254
aI424
aa(lp471
I424
aI254
aI273
aa(lp472
I289
aI91
aI290
aa(lp473
I290
aI91
aI90
aa(lp474
I361
aI362
aI290
aa(lp475
I290
aI362
aI287
aa(lp476
I354
aI339
aI358
aa(lp477
I358
aI339
aI425
aa(lp478
I339
aI341
aI425
aa(lp479
I425
aI341
aI426
aa(lp480
I47
aI32
aI48
aa(lp481
I48
aI32
aI31
aa(lp482
I75
aI74
aI60
aa(lp483
I60
aI74
aI348
aa(lp484
I86
aI351
aI364
aa(lp485
I364
aI351
aI404
aa(lp486
I48
aI31
aI59
aa(lp487
I59
aI31
aI25
aa(lp488
I428
aI350
aI427
aa(lp489
I427
aI350
aI349
aa(lp490
I428
aI429
aI43
aa(lp491
I43
aI429
aI430
aa(lp492
I73
aI72
aI432
aa(lp493
I432
aI72
aI431
aa(lp494
I430
aI433
aI431
aa(lp495
I431
aI433
aI432
aa(lp496
I71
aI47
aI72
aa(lp497
I72
aI47
aI50
aa(lp498
I71
aI33
aI47
aa(lp499
I47
aI33
aI32
aa(lp500
I49
aI45
aI50
aa(lp501
I50
aI45
aI44
aa(lp502
I72
aI50
aI431
aa(lp503
I431
aI50
aI44
aa(lp504
I83
aI95
aI84
aa(lp505
I84
aI95
aI98
aa(lp506
I97
aI335
aI366
aa(lp507
I366
aI335
aI334
aa(lp508
I103
aI102
aI104
aa(lp509
I104
aI102
aI101
aa(lp510
I99
aI113
aI100
aa(lp511
I100
aI113
aI88
aa(lp512
I110
aI107
aI111
aa(lp513
I111
aI107
aI82
aa(lp514
I109
aI127
aI96
aa(lp515
I96
aI127
aI434
aa(lp516
I117
aI93
aI118
aa(lp517
I118
aI93
aI92
aa(lp518
I115
aI144
aI116
aa(lp519
I116
aI144
aI143
aa(lp520
I121
aI79
aI122
aa(lp521
I122
aI79
aI78
aa(lp522
I119
aI134
aI120
aa(lp523
I120
aI134
aI131
aa(lp524
I81
aI123
aI82
aa(lp525
I82
aI123
aI111
aa(lp526
I124
aI130
aI108
aa(lp527
I108
aI130
aI128
aa(lp528
I100
aI88
aI292
aa(lp529
I292
aI88
aI87
aa(lp530
I101
aI291
aI104
aa(lp531
I104
aI291
aI294
aa(lp532
I365
aI292
aI363
aa(lp533
I363
aI292
aI87
aa(lp534
I291
aI366
aI294
aa(lp535
I294
aI366
aI334
aa(lp536
I378
aI409
aI115
aa(lp537
I115
aI409
aI144
aa(lp538
I377
aI376
aI99
aa(lp539
I99
aI376
aI113
aa(lp540
I381
aI77
aI382
aa(lp541
I382
aI77
aI76
aa(lp542
I379
aI138
aI380
aa(lp543
I380
aI138
aI137
aa(lp544
I384
aI112
aI381
aa(lp545
I381
aI112
aI77
aa(lp546
I383
aI135
aI119
aa(lp547
I119
aI135
aI134
aa(lp548
I79
aI121
aI81
aa(lp549
I81
aI121
aI123
aa(lp550
I120
aI131
aI124
aa(lp551
I124
aI131
aI130
aa(lp552
I382
aI76
aI117
aa(lp553
I117
aI76
aI93
aa(lp554
I116
aI143
aI379
aa(lp555
I379
aI143
aI138
aa(lp556
I238
aI417
aI239
aa(lp557
I239
aI417
aI302
aa(lp558
I242
aI259
aI243
aa(lp559
I243
aI259
aI258
aa(lp560
I246
aI245
aI235
aa(lp561
I235
aI245
aI232
aa(lp562
I250
aI392
aI251
aa(lp563
I251
aI392
aI225
aa(lp564
I251
aI225
aI253
aa(lp565
I253
aI225
aI224
aa(lp566
I239
aI302
aI305
aa(lp567
I305
aI302
aI301
aa(lp568
I305
aI369
aI304
aa(lp569
I304
aI369
aI370
aa(lp570
I369
aI253
aI370
aa(lp571
I370
aI253
aI224
aa(lp572
I389
aI386
aI258
aa(lp573
I258
aI386
aI243
aa(lp574
I386
aI388
aI331
aa(lp575
I331
aI388
aI332
aa(lp576
I246
aI390
aI247
aa(lp577
I247
aI390
aI395
aa(lp578
I245
aI250
aI232
aa(lp579
I232
aI250
aI249
aa(lp580
I420
aI421
aI242
aa(lp581
I242
aI421
aI259
aa(lp582
I221
aI223
aI248
aa(lp583
I248
aI223
aI249
aa(lp584
I228
aI302
aI229
aa(lp585
I229
aI302
aI417
aa(lp586
I231
aI230
aI240
aa(lp587
I240
aI230
aI241
aa(lp588
I233
aI217
aI234
aa(lp589
I234
aI217
aI219
aa(lp590
I303
aI228
aI300
aa(lp591
I300
aI228
aI209
aa(lp592
I325
aI327
aI328
aa(lp593
I328
aI327
aI368
aa(lp594
I325
aI221
aI252
aa(lp595
I252
aI221
aI248
aa(lp596
I217
aI233
aI220
aa(lp597
I220
aI233
aI223
aa(lp598
I234
aI330
aI235
aa(lp599
I235
aI330
aI391
aa(lp600
I214
aI333
aI215
aa(lp601
I215
aI333
aI329
aa(lp602
I303
aI327
aI301
aa(lp603
I301
aI327
aI326
aa(lp604
I333
aI231
aI331
aa(lp605
I331
aI231
aI240
aa(lp606
I419
aI416
aI229
aa(lp607
I229
aI416
aI206
aa(lp608
I271
aI227
aI266
aa(lp609
I266
aI227
aI226
aa(lp610
I236
aI256
aI237
aa(lp611
I237
aI256
aI255
aa(lp612
I260
aI277
aI261
aa(lp613
I261
aI277
aI276
aa(lp614
I264
aI263
aI247
aa(lp615
I247
aI263
aI244
aa(lp616
I226
aI225
aI267
aa(lp617
I267
aI225
aI392
aa(lp618
I306
aI256
aI304
aa(lp619
I304
aI256
aI236
aa(lp620
I306
aI371
aI307
aa(lp621
I307
aI371
aI372
aa(lp622
I227
aI371
aI224
aa(lp623
I224
aI371
aI370
aa(lp624
I393
aI389
aI261
aa(lp625
I261
aI389
aI258
aa(lp626
I389
aI393
aI387
aa(lp627
I387
aI393
aI394
aa(lp628
I264
aI396
aI265
aa(lp629
I265
aI396
aI283
aa(lp630
I263
aI267
aI244
aa(lp631
I244
aI267
aI392
aa(lp632
I422
aI423
aI260
aa(lp633
I260
aI423
aI277
aa(lp634
I408
aI352
aI401
aa(lp635
I401
aI352
aI89
aa(lp636
I340
aI435
aI341
aa(lp637
I341
aI435
aI436
aa(lp638
I374
aI437
aI375
aa(lp639
I375
aI437
aI438
aa(lp640
I400
aI439
aI401
aa(lp641
I401
aI439
aI312
aa(lp642
I403
aI440
aI340
aa(lp643
I340
aI440
aI435
aa(lp644
I408
aI311
aI374
aa(lp645
I374
aI311
aI437
aa(lp646
I341
aI436
aI426
aa(lp647
I426
aI436
aI407
aa(lp648
I68
aI441
aI353
aa(lp649
I353
aI441
aI402
aa(lp650
I356
aI442
aI357
aa(lp651
I357
aI442
aI443
aa(lp652
I38
aI37
aI443
aa(lp653
I443
aI37
aI357
aa(lp654
I442
aI441
aI443
aa(lp655
I443
aI441
aI444
aa(lp656
I361
aI75
aI59
aa(lp657
I59
aI75
aI60
aa(lp658
I443
aI444
aI38
aa(lp659
I38
aI444
aI39
aa(lp660
I338
aI8
aI40
aa(lp661
I41
aI16
aI425
aa(lp662
I425
aI16
aI358
aa(lp663
I42
aI41
aI426
aa(lp664
I426
aI41
aI425
aa(lp665
I446
aI447
aI445
aa(lp666
I445
aI447
aI448
aa(lp667
I275
aI274
aI449
aa(lp668
I449
aI274
aI450
aa(lp669
I452
aI453
aI451
aa(lp670
I451
aI453
aI454
aa(lp671
I454
aI455
aI281
aa(lp672
I281
aI455
aI284
aa(lp673
I456
aI457
aI459
aa(lp674
I459
aI457
aI458
aa(lp675
I458
aI457
aI460
aa(lp676
I460
aI457
aI461
aa(lp677
I462
aI269
aI460
aa(lp678
I460
aI269
aI286
aa(lp679
I464
aI446
aI463
aa(lp680
I463
aI446
aI445
aa(lp681
I465
aI452
aI449
aa(lp682
I449
aI452
aI451
aa(lp683
I450
aI467
aI466
aa(lp684
I466
aI467
aI468
aa(lp685
I447
aI446
aI469
aa(lp686
I469
aI446
aI470
aa(lp687
I465
aI466
aI471
aa(lp688
I471
aI466
aI472
aa(lp689
I453
aI452
aI473
aa(lp690
I473
aI452
aI474
aa(lp691
I456
aI476
aI475
aa(lp692
I475
aI476
aI477
aa(lp693
I457
aI456
aI478
aa(lp694
I478
aI456
aI475
aa(lp695
I457
aI478
aI461
aa(lp696
I461
aI478
aI479
aa(lp697
I446
aI464
aI470
aa(lp698
I470
aI464
aI480
aa(lp699
I452
aI465
aI474
aa(lp700
I474
aI465
aI471
aa(lp701
I469
aI481
aI447
aa(lp702
I447
aI481
aI468
aa(lp703
I483
aI484
aI482
aa(lp704
I482
aI484
aI485
aa(lp705
I487
aI488
aI486
aa(lp706
I486
aI488
aI489
aa(lp707
I491
aI492
aI490
aa(lp708
I490
aI492
aI493
aa(lp709
I495
aI496
aI494
aa(lp710
I494
aI496
aI497
aa(lp711
I499
aI500
aI498
aa(lp712
I498
aI500
aI501
aa(lp713
I503
aI504
aI502
aa(lp714
I502
aI504
aI505
aa(lp715
I507
aI508
aI506
aa(lp716
I506
aI508
aI509
aa(lp717
I510
aI511
aI507
aa(lp718
I507
aI511
aI508
aa(lp719
I513
aI503
aI512
aa(lp720
I512
aI503
aI502
aa(lp721
I515
aI516
aI514
aa(lp722
I514
aI516
aI517
aa(lp723
I516
aI518
aI517
aa(lp724
I517
aI518
aI519
aa(lp725
I521
aI522
aI520
aa(lp726
I520
aI522
aI523
aa(lp727
I523
aI522
aI524
aa(lp728
I524
aI522
aI525
aa(lp729
I526
aI527
aI529
aa(lp730
I529
aI527
aI528
aa(lp731
I531
aI532
aI530
aa(lp732
I530
aI532
aI533
aa(lp733
I532
aI531
aI534
aa(lp734
I534
aI531
aI535
aa(lp735
I537
aI527
aI536
aa(lp736
I536
aI527
aI526
aa(lp737
I539
aI540
aI538
aa(lp738
I538
aI540
aI541
aa(lp739
I542
aI543
aI540
aa(lp740
I540
aI543
aI541
aa(lp741
I544
aI545
aI547
aa(lp742
I547
aI545
aI546
aa(lp743
I545
aI548
aI546
aa(lp744
I546
aI548
aI549
aa(lp745
I551
aI552
aI550
aa(lp746
I550
aI552
aI553
aa(lp747
I554
aI555
aI553
aa(lp748
I553
aI555
aI550
aa(lp749
I557
aI558
aI556
aa(lp750
I556
aI558
aI559
aa(lp751
I557
aI560
aI558
aa(lp752
I558
aI560
aI561
aa(lp753
I489
aI488
aI503
aa(lp754
I503
aI488
aI504
aa(lp755
I502
aI505
aI563
aa(lp756
I563
aI505
aI562
aa(lp757
I487
aI564
aI506
aa(lp758
I506
aI564
aI507
aa(lp759
I565
aI562
aI509
aa(lp760
I509
aI562
aI505
aa(lp761
I507
aI564
aI510
aa(lp762
I510
aI564
aI566
aa(lp763
I568
aI508
aI567
aa(lp764
I567
aI508
aI511
aa(lp765
I513
aI486
aI503
aa(lp766
I503
aI486
aI489
aa(lp767
I512
aI569
aI511
aa(lp768
I511
aI569
aI567
aa(lp769
I516
aI515
aI570
aa(lp770
I570
aI515
aI491
aa(lp771
I514
aI571
aI524
aa(lp772
I524
aI571
aI572
aa(lp773
I570
aI573
aI516
aa(lp774
I516
aI573
aI518
aa(lp775
I563
aI574
aI519
aa(lp776
I519
aI574
aI517
aa(lp777
I490
aI493
aI521
aa(lp778
I521
aI493
aI522
aa(lp779
I563
aI519
aI569
aa(lp780
I569
aI519
aI520
aa(lp781
I522
aI493
aI525
aa(lp782
I525
aI493
aI492
aa(lp783
I524
aI572
aI523
aa(lp784
I523
aI572
aI567
aa(lp785
I485
aI484
aI527
aa(lp786
I527
aI484
aI528
aa(lp787
I575
aI526
aI574
aa(lp788
I574
aI526
aI529
aa(lp789
I483
aI576
aI530
aa(lp790
I530
aI576
aI531
aa(lp791
I574
aI529
aI571
aa(lp792
I571
aI529
aI533
aa(lp793
I531
aI576
aI535
aa(lp794
I535
aI576
aI577
aa(lp795
I578
aI572
aI534
aa(lp796
I534
aI572
aI532
aa(lp797
I482
aI485
aI537
aa(lp798
I537
aI485
aI527
aa(lp799
I536
aI579
aI534
aa(lp800
I534
aI579
aI578
aa(lp801
I499
aI580
aI539
aa(lp802
I539
aI580
aI540
aa(lp803
I538
aI581
aI549
aa(lp804
I549
aI581
aI582
aa(lp805
I583
aI542
aI580
aa(lp806
I580
aI542
aI540
aa(lp807
I584
aI541
aI575
aa(lp808
I575
aI541
aI543
aa(lp809
I498
aI501
aI544
aa(lp810
I544
aI501
aI545
aa(lp811
I575
aI543
aI579
aa(lp812
I579
aI543
aI547
aa(lp813
I501
aI500
aI545
aa(lp814
I545
aI500
aI548
aa(lp815
I582
aI578
aI549
aa(lp816
I549
aI578
aI546
aa(lp817
I495
aI585
aI552
aa(lp818
I552
aI585
aI553
aa(lp819
I586
aI587
aI551
aa(lp820
I551
aI587
aI561
aa(lp821
I588
aI554
aI585
aa(lp822
I585
aI554
aI553
aa(lp823
I589
aI550
aI584
aa(lp824
I584
aI550
aI555
aa(lp825
I494
aI497
aI556
aa(lp826
I556
aI497
aI557
aa(lp827
I559
aI581
aI555
aa(lp828
I555
aI581
aI584
aa(lp829
I497
aI496
aI557
aa(lp830
I557
aI496
aI560
aa(lp831
I587
aI582
aI561
aa(lp832
I561
aI582
aI558
aa(lp833
I482
aI577
aI483
aa(lp834
I483
aI577
aI576
aa(lp835
I486
aI566
aI487
aa(lp836
I487
aI566
aI564
aa(lp837
I573
aI570
aI490
aa(lp838
I490
aI570
aI491
aa(lp839
I585
aI495
aI588
aa(lp840
I588
aI495
aI494
aa(lp841
I580
aI499
aI583
aa(lp842
I583
aI499
aI498
aa(lp843
I509
aI505
aI506
aa(lp844
I506
aI505
aI504
aa(lp845
I511
aI510
aI512
aa(lp846
I512
aI510
aI513
aa(lp847
I524
aI525
aI514
aa(lp848
I514
aI525
aI515
aa(lp849
I521
aI520
aI518
aa(lp850
I518
aI520
aI519
aa(lp851
I529
aI528
aI533
aa(lp852
I533
aI528
aI530
aa(lp853
I535
aI537
aI534
aa(lp854
I534
aI537
aI536
aa(lp855
I548
aI539
aI549
aa(lp856
I549
aI539
aI538
aa(lp857
I543
aI542
aI547
aa(lp858
I547
aI542
aI544
aa(lp859
I560
aI552
aI561
aa(lp860
I561
aI552
aI551
aa(lp861
I555
aI554
aI559
aa(lp862
I559
aI554
aI556
aa(lp863
I506
aI504
aI487
aa(lp864
I487
aI504
aI488
aa(lp865
I508
aI568
aI509
aa(lp866
I509
aI568
aI565
aa(lp867
I510
aI566
aI513
aa(lp868
I513
aI566
aI486
aa(lp869
I563
aI569
aI502
aa(lp870
I502
aI569
aI512
aa(lp871
I525
aI492
aI515
aa(lp872
I515
aI492
aI491
aa(lp873
I574
aI571
aI517
aa(lp874
I517
aI571
aI514
aa(lp875
I521
aI518
aI490
aa(lp876
I490
aI518
aI573
aa(lp877
I520
aI523
aI569
aa(lp878
I569
aI523
aI567
aa(lp879
I483
aI530
aI484
aa(lp880
I484
aI530
aI528
aa(lp881
I533
aI532
aI571
aa(lp882
I571
aI532
aI572
aa(lp883
I535
aI577
aI537
aa(lp884
I537
aI577
aI482
aa(lp885
I575
aI579
aI526
aa(lp886
I526
aI579
aI536
aa(lp887
I500
aI499
aI548
aa(lp888
I548
aI499
aI539
aa(lp889
I584
aI581
aI541
aa(lp890
I541
aI581
aI538
aa(lp891
I542
aI583
aI544
aa(lp892
I544
aI583
aI498
aa(lp893
I547
aI546
aI579
aa(lp894
I579
aI546
aI578
aa(lp895
I496
aI495
aI560
aa(lp896
I560
aI495
aI552
aa(lp897
I550
aI589
aI551
aa(lp898
I551
aI589
aI586
aa(lp899
I554
aI588
aI556
aa(lp900
I556
aI588
aI494
aa(lp901
I581
aI559
aI582
aa(lp902
I559
aI558
aI582
aa(lp903
I463
aI590
aI464
aa(lp904
I464
aI590
aI591
aa(lp905
I592
aI590
aI270
aa(lp906
I270
aI590
aI373
aa(lp907
I462
aI593
aI592
aa(lp908
I592
aI593
aI594
aa(lp909
I273
aI272
aI448
aa(lp910
I448
aI272
aI445
aa(lp911
I466
aI465
aI450
aa(lp912
I450
aI465
aI449
aa(lp913
I281
aI280
aI454
aa(lp914
I454
aI280
aI451
aa(lp915
I459
aI455
aI456
aa(lp916
I456
aI455
aI476
aa(lp917
I285
aI282
aI458
aa(lp918
I458
aI282
aI459
aa(lp919
I285
aI458
aI286
aa(lp920
I286
aI458
aI460
aa(lp921
I272
aI308
aI445
aa(lp922
I445
aI308
aI463
aa(lp923
I280
aI275
aI451
aa(lp924
I451
aI275
aI449
aa(lp925
I424
aI273
aI467
aa(lp926
I467
aI273
aI448
aa(lp927
I308
aI373
aI463
aa(lp928
I463
aI373
aI590
aa(lp929
I594
aI591
aI592
aa(lp930
I592
aI591
aI590
aa(lp931
I592
aI270
aI462
aa(lp932
I462
aI270
aI269
aa(lp933
I595
aI480
aI591
aa(lp934
I591
aI480
aI464
aa(lp935
I593
aI596
aI594
aa(lp936
I594
aI596
aI597
aa(lp937
I597
aI595
aI594
aa(lp938
I594
aI595
aI591
aa(lp939
I598
aI599
aI475
aa(lp940
I475
aI599
aI478
aa(lp941
I475
aI477
aI598
aa(lp942
I598
aI477
aI600
aa(lp943
I601
aI602
aI474
aa(lp944
I474
aI602
aI473
aa(lp945
I603
aI604
aI595
aa(lp946
I595
aI604
aI480
aa(lp947
I605
aI603
aI597
aa(lp948
I597
aI603
aI595
aa(lp949
I605
aI597
aI606
aa(lp950
I606
aI597
aI596
aa(lp951
I461
aI479
aI593
aa(lp952
I593
aI479
aI596
aa(lp953
I593
aI462
aI461
aa(lp954
I461
aI462
aI460
aa(lp955
I608
aI609
aI607
aa(lp956
I607
aI609
aI610
aa(lp957
I610
aI609
aI612
aa(lp958
I612
aI609
aI611
aa(lp959
I613
aI614
aI611
aa(lp960
I611
aI614
aI612
aa(lp961
I615
aI616
aI613
aa(lp962
I613
aI616
aI614
aa(lp963
I617
aI618
aI615
aa(lp964
I615
aI618
aI616
aa(lp965
I619
aI620
aI617
aa(lp966
I617
aI620
aI618
aa(lp967
I622
aI608
aI621
aa(lp968
I621
aI608
aI607
aa(lp969
I624
aI622
aI623
aa(lp970
I623
aI622
aI621
aa(lp971
I626
aI624
aI625
aa(lp972
I625
aI624
aI623
aa(lp973
I628
aI620
aI627
aa(lp974
I627
aI620
aI619
aa(lp975
I630
aI626
aI629
aa(lp976
I629
aI626
aI625
aa(lp977
I632
aI630
aI631
aa(lp978
I631
aI630
aI629
aa(lp979
I634
aI632
aI633
aa(lp980
I633
aI632
aI631
aa(lp981
I627
aI634
aI628
aa(lp982
I628
aI634
aI633
aa(lp983
I636
aI611
aI635
aa(lp984
I635
aI611
aI609
aa(lp985
I637
aI613
aI636
aa(lp986
I636
aI613
aI611
aa(lp987
I638
aI615
aI637
aa(lp988
I637
aI615
aI613
aa(lp989
I639
aI617
aI638
aa(lp990
I638
aI617
aI615
aa(lp991
I640
aI619
aI639
aa(lp992
I639
aI619
aI617
aa(lp993
I642
aI639
aI641
aa(lp994
I641
aI639
aI638
aa(lp995
I643
aI640
aI642
aa(lp996
I642
aI640
aI639
aa(lp997
I644
aI645
aI642
aa(lp998
I642
aI645
aI643
aa(lp999
I647
aI648
aI646
aa(lp1000
I646
aI648
aI649
aa(lp1001
I645
aI644
aI648
aa(lp1002
I648
aI644
aI649
aa(lp1003
I641
aI650
aI642
aa(lp1004
I642
aI650
aI644
aa(lp1005
I650
aI651
aI644
aa(lp1006
I644
aI651
aI649
aa(lp1007
I651
aI652
aI649
aa(lp1008
I649
aI652
aI646
aa(lp1009
I654
aI655
aI653
aa(lp1010
I653
aI655
aI656
aa(lp1011
I656
aI657
aI653
aa(lp1012
I653
aI657
aI658
aa(lp1013
I660
aI658
aI659
aa(lp1014
I659
aI658
aI657
aa(lp1015
I656
aI655
aI661
aa(lp1016
I661
aI655
aI662
aa(lp1017
I661
aI663
aI656
aa(lp1018
I656
aI663
aI657
aa(lp1019
I663
aI664
aI657
aa(lp1020
I657
aI664
aI659
aa(lp1021
I665
aI666
aI664
aa(lp1022
I664
aI666
aI659
aa(lp1023
I660
aI659
aI667
aa(lp1024
I667
aI659
aI666
aa(lp1025
I668
aI635
aI608
aa(lp1026
I608
aI635
aI609
aa(lp1027
I669
aI668
aI622
aa(lp1028
I622
aI668
aI608
aa(lp1029
I637
aI670
aI638
aa(lp1030
I638
aI670
aI641
aa(lp1031
I636
aI671
aI637
aa(lp1032
I637
aI671
aI670
aa(lp1033
I672
aI671
aI635
aa(lp1034
I635
aI671
aI636
aa(lp1035
I668
aI673
aI635
aa(lp1036
I635
aI673
aI672
aa(lp1037
I674
aI673
aI669
aa(lp1038
I669
aI673
aI668
aa(lp1039
I675
aI676
aI674
aa(lp1040
I674
aI676
aI673
aa(lp1041
I677
aI669
aI624
aa(lp1042
I624
aI669
aI622
aa(lp1043
I678
aI674
aI677
aa(lp1044
I677
aI674
aI669
aa(lp1045
I679
aI675
aI678
aa(lp1046
I678
aI675
aI674
aa(lp1047
I680
aI681
aI675
aa(lp1048
I675
aI681
aI676
aa(lp1049
I682
aI683
aI680
aa(lp1050
I680
aI683
aI681
aa(lp1051
I684
aI685
aI666
aa(lp1052
I666
aI685
aI667
aa(lp1053
I683
aI684
aI686
aa(lp1054
I686
aI684
aI687
aa(lp1055
I686
aI688
aI683
aa(lp1056
I683
aI688
aI681
aa(lp1057
I689
aI676
aI688
aa(lp1058
I688
aI676
aI681
aa(lp1059
I672
aI673
aI689
aa(lp1060
I689
aI673
aI676
aa(lp1061
I627
aI619
aI690
aa(lp1062
I690
aI619
aI640
aa(lp1063
I690
aI640
aI691
aa(lp1064
I691
aI640
aI643
aa(lp1065
I691
aI643
aI692
aa(lp1066
I692
aI643
aI645
aa(lp1067
I692
aI645
aI693
aa(lp1068
I693
aI645
aI648
aa(lp1069
I694
aI693
aI647
aa(lp1070
I647
aI693
aI648
aa(lp1071
I654
aI695
aI647
aa(lp1072
I647
aI695
aI694
aa(lp1073
I696
aI697
aI658
aa(lp1074
I658
aI697
aI653
aa(lp1075
I698
aI696
aI660
aa(lp1076
I660
aI696
aI658
aa(lp1077
I699
aI698
aI667
aa(lp1078
I667
aI698
aI660
aa(lp1079
I685
aI700
aI667
aa(lp1080
I667
aI700
aI699
aa(lp1081
I702
aI682
aI701
aa(lp1082
I701
aI682
aI680
aa(lp1083
I701
aI680
aI679
aa(lp1084
I679
aI680
aI675
aa(lp1085
I606
aI670
aI605
aa(lp1086
I605
aI670
aI671
aa(lp1087
I603
aI605
aI672
aa(lp1088
I672
aI605
aI671
aa(lp1089
I604
aI603
aI689
aa(lp1090
I689
aI603
aI672
aa(lp1091
I703
aI604
aI688
aa(lp1092
I688
aI604
aI689
aa(lp1093
I704
aI703
aI686
aa(lp1094
I686
aI703
aI688
aa(lp1095
I686
aI687
aI704
aa(lp1096
I704
aI687
aI705
aa(lp1097
I707
aI665
aI706
aa(lp1098
I706
aI665
aI664
aa(lp1099
I706
aI664
aI601
aa(lp1100
I601
aI664
aI663
aa(lp1101
I602
aI601
aI661
aa(lp1102
I661
aI601
aI663
aa(lp1103
I661
aI662
aI602
aa(lp1104
I602
aI662
aI600
aa(lp1105
I599
aI598
aI651
aa(lp1106
I651
aI598
aI652
aa(lp1107
I708
aI677
aI626
aa(lp1108
I626
aI677
aI624
aa(lp1109
I709
aI708
aI630
aa(lp1110
I630
aI708
aI626
aa(lp1111
I710
aI709
aI632
aa(lp1112
I632
aI709
aI630
aa(lp1113
I711
aI710
aI634
aa(lp1114
I634
aI710
aI632
aa(lp1115
I690
aI711
aI627
aa(lp1116
I627
aI711
aI634
aa(lp1117
I711
aI690
aI712
aa(lp1118
I712
aI690
aI691
aa(lp1119
I710
aI711
aI713
aa(lp1120
I713
aI711
aI712
aa(lp1121
I709
aI710
aI714
aa(lp1122
I714
aI710
aI713
aa(lp1123
I708
aI709
aI715
aa(lp1124
I715
aI709
aI714
aa(lp1125
I677
aI708
aI678
aa(lp1126
I678
aI708
aI715
aa(lp1127
I712
aI691
aI716
aa(lp1128
I716
aI691
aI692
aa(lp1129
I713
aI712
aI717
aa(lp1130
I717
aI712
aI716
aa(lp1131
I714
aI713
aI718
aa(lp1132
I718
aI713
aI717
aa(lp1133
I715
aI714
aI719
aa(lp1134
I719
aI714
aI718
aa(lp1135
I678
aI715
aI679
aa(lp1136
I679
aI715
aI719
aa(lp1137
I720
aI701
aI719
aa(lp1138
I719
aI701
aI679
aa(lp1139
I721
aI720
aI718
aa(lp1140
I718
aI720
aI719
aa(lp1141
I717
aI722
aI718
aa(lp1142
I718
aI722
aI721
aa(lp1143
I723
aI722
aI716
aa(lp1144
I716
aI722
aI717
aa(lp1145
I716
aI692
aI723
aa(lp1146
I723
aI692
aI693
aa(lp1147
I723
aI693
aI724
aa(lp1148
I724
aI693
aI694
aa(lp1149
I724
aI725
aI723
aa(lp1150
I723
aI725
aI722
aa(lp1151
I726
aI721
aI725
aa(lp1152
I725
aI721
aI722
aa(lp1153
I726
aI727
aI721
aa(lp1154
I721
aI727
aI720
aa(lp1155
I727
aI702
aI720
aa(lp1156
I720
aI702
aI701
aa(lp1157
I695
aI728
aI694
aa(lp1158
I694
aI728
aI724
aa(lp1159
I730
aI697
aI729
aa(lp1160
I729
aI697
aI696
aa(lp1161
I729
aI696
aI731
aa(lp1162
I731
aI696
aI698
aa(lp1163
I732
aI731
aI699
aa(lp1164
I699
aI731
aI698
aa(lp1165
I700
aI733
aI699
aa(lp1166
I699
aI733
aI732
aa(lp1167
I733
aI734
aI732
aa(lp1168
I732
aI734
aI735
aa(lp1169
I728
aI736
aI724
aa(lp1170
I724
aI736
aI725
aa(lp1171
I737
aI735
aI736
aa(lp1172
I736
aI735
aI734
aa(lp1173
I739
aI729
aI738
aa(lp1174
I738
aI729
aI731
aa(lp1175
I737
aI739
aI735
aa(lp1176
I735
aI739
aI738
aa(lp1177
I731
aI732
aI738
aa(lp1178
I738
aI732
aI735
aa(lp1179
I737
aI730
aI739
aa(lp1180
I739
aI730
aI729
aa(lp1181
I623
aI621
aI568
aa(lp1182
I568
aI621
aI565
aa(lp1183
I567
aI625
aI568
aa(lp1184
I568
aI625
aI623
aa(lp1185
I629
aI625
aI572
aa(lp1186
I572
aI625
aI567
aa(lp1187
I631
aI629
aI578
aa(lp1188
I578
aI629
aI572
aa(lp1189
I633
aI631
aI582
aa(lp1190
I582
aI631
aI578
aa(lp1191
I628
aI633
aI587
aa(lp1192
I587
aI633
aI582
aa(lp1193
I620
aI628
aI586
aa(lp1194
I586
aI628
aI587
aa(lp1195
I589
aI618
aI586
aa(lp1196
I586
aI618
aI620
aa(lp1197
I584
aI616
aI589
aa(lp1198
I589
aI616
aI618
aa(lp1199
I575
aI614
aI584
aa(lp1200
I584
aI614
aI616
aa(lp1201
I574
aI612
aI575
aa(lp1202
I575
aI612
aI614
aa(lp1203
I610
aI612
aI563
aa(lp1204
I563
aI612
aI574
aa(lp1205
I607
aI610
aI562
aa(lp1206
I562
aI610
aI563
aa(lp1207
I621
aI607
aI565
aa(lp1208
I565
aI607
aI562
aa(lp1209
I471
aI472
aI706
aa(lp1210
I706
aI472
aI707
aa(lp1211
I474
aI471
aI601
aa(lp1212
I601
aI471
aI706
aa(lp1213
I469
aI470
aI704
aa(lp1214
I704
aI470
aI703
aa(lp1215
I704
aI705
aI469
aa(lp1216
I469
aI705
aI481
aa(lp1217
I470
aI480
aI703
aa(lp1218
I703
aI480
aI604
aa(lp1219
I650
aI641
aI740
aa(lp1220
I740
aI641
aI606
aa(lp1221
I606
aI641
aI670
aa(lp1222
I740
aI599
aI650
aa(lp1223
I650
aI599
aI651
aa(lp1224
I478
aI599
aI479
aa(lp1225
I479
aI599
aI740
aa(lp1226
I479
aI740
aI596
aa(lp1227
I596
aI740
aI606
aa(lp1228
I741
aI742
aI197
aa(lp1229
I197
aI742
aI198
aa(lp1230
I741
aI328
aI742
aa(lp1231
I742
aI328
aI368
aa(lp1232
I741
aI743
aI328
aa(lp1233
I328
aI743
aI222
aa(lp1234
I741
aI197
aI743
aa(lp1235
I743
aI197
aI205
aa(lp1236
I65
aI64
aI404
aa(lp1237
I404
aI64
aI364
aa(lp1238
I64
aI84
aI364
aa(lp1239
I364
aI84
aI363
aa(lp1240
I98
aI97
aI365
aa(lp1241
I365
aI97
aI366
aa(lp1242
I169
aI168
aI193
aa(lp1243
I193
aI168
aI194
aa(lp1244
I169
aI198
aI170
aa(lp1245
I170
aI198
aI367
aa(lp1246
I324
aI323
aI179
aa(lp1247
I179
aI323
aI180
aa(lp1248
I336
aI335
aI385
aa(lp1249
I385
aI335
aI434
aa(lp1250
I336
aI323
aI337
aa(lp1251
I337
aI323
aI322
aa(lp1252
I168
aI324
aI194
aa(lp1253
I194
aI324
aI179
aa(lp1254
I65
aI405
aI66
aa(lp1255
I66
aI405
aI406
aa(lp1256
I84
aI98
aI363
aa(lp1257
I363
aI98
aI365
aa(lp1258
I335
aI97
aI434
aa(lp1259
I434
aI97
aI96
aa(lp1260
I405
aI439
aI406
aa(lp1261
I406
aI439
aI745
aa(lp1262
I62
aI61
aI66
aa(lp1263
I66
aI61
aI63
aa(lp1264
I107
aI61
aI82
aa(lp1265
I82
aI61
aI54
aa(lp1266
I110
aI109
aI95
aa(lp1267
I95
aI109
aI96
aa(lp1268
I127
aI126
aI434
aa(lp1269
I434
aI126
aI385
aa(lp1270
I182
aI181
aI317
aa(lp1271
I317
aI181
aI172
aa(lp1272
I196
aI195
aI162
aa(lp1273
I162
aI195
aI161
aa(lp1274
I196
aI205
aI193
aa(lp1275
I193
aI205
aI197
aa(lp1276
I182
aI195
aI179
aa(lp1277
I179
aI195
aI194
aa(lp1278
I126
aI181
aI385
aa(lp1279
I385
aI181
aI180
aa(lp1280
I744
aI399
aI745
aa(lp1281
I51
aI62
aI346
aa(lp1282
I346
aI62
aI398
aa(lp1283
I107
aI110
aI83
aa(lp1284
I83
aI110
aI95
aa(lp1285
I127
aI109
aI128
aa(lp1286
I128
aI109
aI108
aa(lp1287
I205
aI204
aI743
aa(lp1288
I743
aI204
aI222
aa(lp1289
I198
aI742
aI367
aa(lp1290
I367
aI742
aI368
aa(lp1291
I311
aI408
aI312
aa(lp1292
I312
aI408
aI401
aa(lp1293
I28
aI42
aI407
aa(lp1294
I407
aI42
aI426
aa(lp1295
I435
aI288
aI436
aa(lp1296
I436
aI288
aI287
aa(lp1297
I437
aI345
aI438
aa(lp1298
I438
aI345
aI344
aa(lp1299
I439
aI405
aI312
aa(lp1300
I312
aI405
aI309
aa(lp1301
I440
aI397
aI435
aa(lp1302
I435
aI397
aI288
aa(lp1303
I311
aI310
aI437
aa(lp1304
I437
aI310
aI345
aa(lp1305
I436
aI287
aI407
aa(lp1306
I407
aI287
aI362
aa(lp1307
I439
aI400
aI745
aa(lp1308
I745
aI400
aI744
aa(lp1309
I399
aI398
aI745
aa(lp1310
I745
aI398
aI406
aa(lp1311
I43
aI46
aI428
aa(lp1312
I428
aI46
aI350
aa(lp1313
I57
aI348
aI58
aa(lp1314
I58
aI348
aI74
aa(lp1315
I112
aI58
aI77
aa(lp1316
I77
aI58
aI74
aa(lp1317
I136
aI135
aI140
aa(lp1318
I140
aI135
aI137
aa(lp1319
I155
aI154
aI150
aa(lp1320
I150
aI154
aI151
aa(lp1321
I186
aI154
aI185
aa(lp1322
I185
aI154
aI153
aa(lp1323
I155
aI201
aI156
aa(lp1324
I156
aI201
aI218
aa(lp1325
I201
aI216
aI218
aa(lp1326
I218
aI216
aI219
aa(lp1327
I283
aI278
aI284
aa(lp1328
I284
aI278
aI281
aa(lp1329
I315
aI314
aI70
aa(lp1330
I70
aI314
aI67
aa(lp1331
I186
aI318
aI187
aa(lp1332
I187
aI318
aI319
aa(lp1333
I216
aI330
aI219
aa(lp1334
I219
aI330
aI234
aa(lp1335
I314
aI9
aI67
aa(lp1336
I67
aI9
aI8
aa(lp1337
I57
aI56
aI46
aa(lp1338
I46
aI56
aI350
aa(lp1339
I360
aI359
aI114
aa(lp1340
I114
aI359
aI343
aa(lp1341
I376
aI360
aI113
aa(lp1342
I113
aI360
aI114
aa(lp1343
I378
aI377
aI102
aa(lp1344
I102
aI377
aI99
aa(lp1345
I384
aI383
aI122
aa(lp1346
I122
aI383
aI119
aa(lp1347
I136
aI318
aI133
aa(lp1348
I133
aI318
aI173
aa(lp1349
I390
aI246
aI391
aa(lp1350
I391
aI246
aI235
aa(lp1351
I396
aI264
aI395
aa(lp1352
I395
aI264
aI247
aa(lp1353
I397
aI359
aI288
aa(lp1354
I288
aI359
aI289
aa(lp1355
I403
aI315
aI375
aa(lp1356
I375
aI315
aI70
aa(lp1357
I410
aI409
aI106
aa(lp1358
I106
aI409
aI103
aa(lp1359
I410
aI411
aI141
aa(lp1360
I141
aI411
aI175
aa(lp1361
I412
aI411
aI191
aa(lp1362
I191
aI411
aI178
aa(lp1363
I412
aI413
aI190
aa(lp1364
I190
aI413
aI148
aa(lp1365
I414
aI413
aI165
aa(lp1366
I165
aI413
aI166
aa(lp1367
I414
aI415
aI145
aa(lp1368
I145
aI415
aI213
aa(lp1369
I206
aI416
aI207
aa(lp1370
I207
aI416
aI415
aa(lp1371
I419
aI418
aI230
aa(lp1372
I230
aI418
aI241
aa(lp1373
I420
aI418
aI238
aa(lp1374
I238
aI418
aI417
aa(lp1375
I422
aI421
aI255
aa(lp1376
I255
aI421
aI237
aa(lp1377
I423
aI424
aI277
aa(lp1378
I277
aI424
aI274
aa(lp1379
I43
aI430
aI44
aa(lp1380
I44
aI430
aI431
aa(lp1381
I409
aI378
aI103
aa(lp1382
I103
aI378
aI102
aa(lp1383
I376
aI377
aI92
aa(lp1384
I92
aI377
aI118
aa(lp1385
I112
aI384
aI78
aa(lp1386
I78
aI384
aI122
aa(lp1387
I135
aI383
aI137
aa(lp1388
I137
aI383
aI380
aa(lp1389
I390
aI388
aI395
aa(lp1390
I395
aI388
aI387
aa(lp1391
I421
aI420
aI237
aa(lp1392
I237
aI420
aI238
aa(lp1393
I332
aI391
aI329
aa(lp1394
I329
aI391
aI330
aa(lp1395
I416
aI419
aI210
aa(lp1396
I210
aI419
aI230
aa(lp1397
I396
aI394
aI283
aa(lp1398
I283
aI394
aI278
aa(lp1399
I423
aI422
aI254
aa(lp1400
I254
aI422
aI255
aa(lp1401
I440
aI403
aI438
aa(lp1402
I438
aI403
aI375
aa(lp1403
I455
aI459
aI284
aa(lp1404
I284
aI459
aI282
aa(lp1405
I467
aI448
aI468
aa(lp1406
I468
aI448
aI447
aa(lp1407
I476
aI453
aI477
aa(lp1408
I477
aI453
aI473
aa(lp1409
I481
aI472
aI468
aa(lp1410
I468
aI472
aI466
aa(lp1411
I455
aI454
aI476
aa(lp1412
I476
aI454
aI453
aa(lp1413
I467
aI450
aI424
aa(lp1414
I424
aI450
aI274
aa(lp1415
I477
aI473
aI600
aa(lp1416
I600
aI473
aI602
aa(lp1417
I646
aI655
aI647
aa(lp1418
I647
aI655
aI654
aa(lp1419
I655
aI646
aI662
aa(lp1420
I662
aI646
aI652
aa(lp1421
I685
aI684
aI682
aa(lp1422
I682
aI684
aI683
aa(lp1423
I687
aI684
aI665
aa(lp1424
I665
aI684
aI666
aa(lp1425
I695
aI654
aI697
aa(lp1426
I697
aI654
aI653
aa(lp1427
I700
aI685
aI702
aa(lp1428
I702
aI685
aI682
aa(lp1429
I687
aI665
aI705
aa(lp1430
I705
aI665
aI707
aa(lp1431
I662
aI652
aI600
aa(lp1432
I600
aI652
aI598
aa(lp1433
I728
aI695
aI730
aa(lp1434
I730
aI695
aI697
aa(lp1435
I733
aI700
aI727
aa(lp1436
I727
aI700
aI702
aa(lp1437
I734
aI733
aI726
aa(lp1438
I726
aI733
aI727
aa(lp1439
I736
aI728
aI737
aa(lp1440
I737
aI728
aI730
aa(lp1441
I736
aI734
aI725
aa(lp1442
I725
aI734
aI726
aa(lp1443
I705
aI707
aI481
aa(lp1444
I481
aI707
aI472
aa(lp1445
I397
aI440
aI344
aa(lp1446
I344
aI440
aI438
aa(lp1447
I441
aI442
aI402
aa(lp1448
I402
aI442
aI356
aa(lp1449
I338
aI444
aI68
aa(lp1450
I68
aI444
aI441
aa(lp1451
I40
aI39
aI338
aa(lp1452
I338
aI39
aI444
aas.