(dp1
S'l_arm_idx_list'
p2
(lp3
I626
aI627
aI628
aI629
aI634
aI635
aI636
aI637
aI680
aI681
aI682
aI683
aI716
aI717
aI718
aI719
aI755
aI756
aI769
aI770
aI771
aI772
aI773
aI774
aI775
aI776
aI777
aI778
aI779
aI780
aI784
aI785
aI786
aI787
aI788
aI789
aI790
aI791
aI792
aI793
aI1231
aI1232
aI1233
aI1234
aI1258
aI1259
aI1260
aI1261
aI1271
aI1272
aI1273
aI1281
aI1282
aI1284
aI1285
aI1288
aI1310
aI1311
aI1314
aI1315
aI1340
aI1341
aI1342
aI1343
aI1355
aI1356
aI1357
aI1358
aI1376
aI1377
aI1378
aI1379
aI1380
aI1381
aI1382
aI1383
aI1384
aI1385
aI1386
aI1387
aI1388
aI1389
aI1390
aI1391
aI1392
aI1393
aI1394
aI1395
aI1396
aI1397
aI1398
aI1399
aI1400
aI1401
aI1402
aI1403
aI1404
aI1405
aI1406
aI1407
aI1408
aI1409
aI1410
aI1411
aI1412
aI1413
aI1414
aI1415
aI1416
aI1428
aI1429
aI1430
aI1431
aI1432
aI1433
aI1438
aI1439
aI1440
aI1441
aI1442
aI1443
aI1444
aI1445
aI1502
aI1505
aI1506
aI1507
aI1508
aI1509
aI1510
aI1538
aI1541
aI1542
aI1543
aI1544
aI1545
aI1546
aI1547
aI1548
aI1549
aI1550
aI1551
aI1552
aI1553
aI1554
aI1555
aI1556
aI1557
aI1558
aI1559
aI1560
aI1561
aI1562
aI1563
aI1564
aI1565
aI1566
aI1567
aI1568
aI1569
aI1570
aI1571
aI1572
aI1573
aI1574
aI1575
aI1576
aI1577
aI1578
aI1579
aI1580
aI1581
aI1582
aI1583
aI1584
aI1585
aI1586
aI1587
aI1588
aI1589
aI1590
aI1591
aI1592
aI1593
aI1594
aI1595
aI1596
aI1597
aI1598
aI1599
aI1600
aI1601
aI1602
aI1603
aI1604
aI1605
aI1606
aI1607
aI1608
aI1609
aI1610
aI1611
aI1612
aI1613
aI1614
aI1615
aI1616
aI1617
aI1618
aI1619
aI1620
aI1621
aI1622
aI1623
aI1624
aI1625
aI1626
aI1627
aI1628
aI1629
aI1630
aI1631
aI1632
aI1633
aI1634
aI1635
aI1636
aI1637
aI1638
aI1639
aI1640
aI1641
aI1642
aI1643
aI1644
aI1645
aI1646
aI1647
aI1648
aI1649
aI1650
aI1651
aI1652
aI1653
aI1654
aI1655
aI1656
aI1657
aI1658
aI1659
aI1660
aI1661
aI1662
aI1663
aI1664
aI1665
aI1666
aI1667
aI1668
aI1669
aI1670
aI1671
aI1672
aI1673
aI1674
aI1675
aI1676
aI1677
aI1678
aI1679
aI1680
aI1681
aI1682
aI1683
aI1684
aI1685
aI1686
aI1687
aI1688
aI1689
aI1690
aI1691
aI1692
aI1693
aI1694
aI1695
aI1696
aI1697
aI1698
aI1699
aI1700
aI1701
aI1702
aI1703
aI1704
aI1705
aI1706
aI1707
aI1708
aI1709
aI1710
aI1711
aI1712
aI1713
aI1714
aI1715
aI1716
aI1717
aI1718
aI1719
aI1720
aI1721
aI1722
aI1723
aI1724
aI1725
aI1726
aI1727
aI1728
aI1729
aI1730
aI1731
aI1732
aI1733
aI1734
aI1735
aI1736
aI1737
aI1738
aI1739
aI1740
aI1741
aI1742
aI1743
aI1744
aI1745
aI1746
aI1747
aI1748
aI1749
aI1750
aI1751
aI1752
aI1761
aI1762
aI1829
aI1830
aI1831
aI1842
aI1843
aI1844
aI1845
aI1846
aI1847
aI1848
aI1850
aI1851
aI1854
aI1855
aI1858
aI1859
aI1860
aI1865
aI1866
aI1867
aI1868
aI1869
aI1870
aI1871
aI1874
aI1875
aI1876
aI1877
aI1878
aI1879
aI1880
aI1882
aI1883
aI1888
aI1889
aI1892
aI1900
aI1901
aI1902
aI1903
aI1904
aI1909
aI1910
aI1911
aI1912
aI1913
aI1914
aI1915
aI1916
aI1917
aI1918
aI1919
aI1920
aI1921
aI1922
aI1923
aI1924
aI1925
aI1926
aI1927
aI1928
aI1929
aI1930
aI1931
aI1932
aI1933
aI1934
aI1935
aI1936
aI1937
aI1938
aI1939
aI1940
aI1941
aI1942
aI1943
aI1944
aI1945
aI1946
aI1947
aI1948
aI1949
aI1950
aI1951
aI1952
aI1953
aI1954
aI1955
aI1956
aI1957
aI1958
aI1959
aI1960
aI1961
aI1962
aI1963
aI1964
aI1965
aI1966
aI1967
aI1968
aI1969
aI1970
aI1971
aI1972
aI1973
aI1974
aI1975
aI1976
aI1977
aI1978
aI1979
aI1980
aI1981
aI1982
aI1983
aI1984
aI1985
aI1986
aI1987
aI1988
aI1989
aI1990
aI1991
aI1992
aI1993
aI1994
aI1995
aI1996
aI1997
aI1998
aI1999
aI2000
aI2001
aI2002
aI2003
aI2004
aI2005
aI2006
aI2007
aI2008
aI2009
aI2010
aI2011
aI2012
aI2013
aI2014
aI2015
aI2016
aI2017
aI2018
aI2019
aI2020
aI2021
aI2022
aI2023
aI2024
aI2025
aI2026
aI2027
aI2028
aI2029
aI2030
aI2031
aI2032
aI2033
aI2034
aI2035
aI2036
aI2037
aI2038
aI2039
aI2040
aI2041
aI2042
aI2043
aI2044
aI2045
aI2046
aI2047
aI2048
aI2049
aI2050
aI2051
aI2052
aI2053
aI2054
aI2055
aI2056
aI2057
aI2058
aI2059
aI2060
aI2061
aI2062
aI2063
aI2064
aI2065
aI2066
aI2067
aI2068
aI2069
aI2070
aI2071
aI2072
aI2073
aI2074
aI2075
aI2076
aI2077
aI2078
aI2079
aI2080
aI2081
aI2082
aI2083
aI2084
aI2085
aI2086
aI2087
aI2088
aI2089
aI2090
aI2091
aI2092
aI2093
aI2094
aI2095
aI2096
aI2097
aI2098
aI2099
aI2100
aI2101
aI2102
aI2103
aI2104
aI2105
aI2106
aI2107
aI2108
aI2109
aI2110
aI2111
aI2112
aI2113
aI2114
aI2115
aI2116
aI2117
aI2118
aI2119
aI2120
aI2121
aI2122
aI2123
aI2124
aI2125
aI2126
aI2127
aI2128
aI2129
aI2130
aI2131
aI2132
aI2133
aI2134
aI2135
aI2136
aI2137
aI2138
aI2139
aI2140
aI2141
aI2142
aI2143
aI2144
aI2145
aI2146
aI2147
aI2148
aI2149
aI2150
aI2151
aI2152
aI2153
aI2154
aI2155
aI2156
aI2157
aI2158
aI2159
aI2160
aI2161
aI2162
aI2163
aI2164
aI2165
aI2166
aI2167
aI2168
aI2169
aI2170
aI2171
aI2172
aI2173
aI2174
aI2175
aI2176
aI2177
aI2178
aI2179
aI2180
aI2181
aI2182
aI2183
aI2184
aI2185
aI2186
aI2187
aI2188
aI2189
aI2190
aI2191
aI2192
aI2193
aI2194
aI2195
aI2196
aI2197
aI2198
aI2199
aI2200
aI2201
aI2202
aI2203
aI2204
aI2205
aI2206
aI2207
aI2208
aI2209
aI2210
aI2211
aI2212
aI2213
aI2214
aI2215
aI2216
aI2217
aI2218
aI2219
aI2220
aI2221
aI2222
aI2223
aI2224
aI2225
aI2226
aI2227
aI2228
aI2229
aI2230
aI2231
aI2232
aI2233
aI2234
aI2235
aI2236
aI2237
aI2238
aI2239
aI2240
aI2241
aI2242
aI2243
aI2244
aI2245
aI2246
aI2247
aI2248
aI2249
aI2250
aI2251
aI2252
aI2253
aI2254
aI2255
aI2256
aI2257
aI2258
aI2259
aI2260
aI2261
aI2262
aI2263
aI2264
aI2265
aI2266
aI2267
aI2268
aI2269
aI2270
aI2271
aI2272
aI2273
aI2274
aI2275
aI2276
aI2277
aI2278
aI2279
aI2280
aI2281
aI2282
aI2283
aI2284
aI2285
aI2286
aI2287
aI2288
aI2289
aI2290
aI2291
aI2292
aI2293
aI2294
aI2295
aI2296
aI2297
aI2298
aI2299
aI2300
aI2301
aI2302
aI2303
aI2304
aI2305
aI2306
aI2307
aI2308
aI2309
aI2310
aI2311
aI2312
aI2313
aI2314
aI2315
aI2316
aI2317
aI2318
aI2319
aI2320
aI2321
aI2322
aI2323
aI2324
aI2325
aI2326
aI2327
aI2328
aI2329
aI2330
aI2331
aI2332
aI2333
aI2334
aI2335
aI2336
aI2337
aI2338
aI2339
aI2340
aI2341
aI2342
aI2343
aI2344
aI2345
aI2346
aI2347
aI2348
aI2349
aI2350
aI2351
aI2352
aI2353
aI2354
aI2355
aI2356
aI2357
aI2358
aI2359
aI2360
aI2361
aI2362
aI2363
aI2364
aI2365
aI2366
aI2367
aI2368
aI2369
aI2370
aI2371
aI2372
aI2373
aI2374
aI2375
aI2376
aI2377
aI2378
aI2379
aI2380
aI2381
aI2382
aI2383
aI2384
aI2385
aI2386
aI2387
aI2388
aI2389
aI2390
aI2391
aI2392
aI2393
aI2394
aI2395
aI2396
aI2397
aI2398
aI2399
aI2400
aI2401
aI2402
aI2403
aI2404
aI2405
aI2406
aI2407
aI2408
aI2409
aI2410
aI2411
aI2412
aI2413
aI2414
aI2415
aI2416
aI2417
aI2418
aI2419
aI2420
aI2421
aI2422
aI2423
aI2424
aI2425
aI2426
aI2427
aI2428
aI2429
aI2430
aI2431
aI2432
aI2433
aI2434
aI2435
aI2436
aI2437
aI2438
aI2439
aI2440
aI2441
aI2442
aI2443
aI2444
aI2445
aI2446
aI2447
aI2448
aI2449
aI2450
aI2451
aI2452
aI2453
aI2454
aI2455
aI2456
aI2457
aI2458
aI2459
aI2460
aI2461
aI2462
aI2463
aI2464
aI2465
aI2466
aI2467
aI2468
aI2469
aI2470
aI2471
aI2472
aI2473
aI2474
aI2475
aI2476
aI2477
aI2478
aI2479
aI2480
aI2481
aI2482
aI2483
aI2484
aI2485
aI2486
aI2487
aI2488
aI2489
aI2490
aI2491
aI2492
aI2493
aI2494
aI2495
aI2496
aI2497
aI2498
aI2499
aI2500
aI2501
aI2502
aI2503
aI2504
aI2505
aI2506
aI2507
aI2508
aI2509
aI2510
aI2511
aI2512
aI2513
aI2514
aI2515
aI2516
aI2517
aI2518
aI2519
aI2520
aI2521
aI2522
aI2523
aI2524
aI2525
aI2526
aI2527
aI2528
aI2529
aI2530
aI2531
aI2532
aI2533
aI2534
aI2535
aI2536
aI2537
aI2538
aI2539
aI2540
aI2541
aI2542
aI2543
aI2544
aI2545
aI2546
aI2547
aI2548
aI2549
aI2550
aI2551
aI2552
aI2553
aI2554
aI2555
aI2556
aI2557
aI2558
aI2559
aI2560
aI2561
aI2562
aI2563
aI2564
aI2565
aI2566
aI2567
aI2568
aI2569
aI2570
aI2571
aI2572
aI2573
aI2574
aI2575
aI2576
aI2577
aI2578
aI2579
aI2580
aI2581
aI2582
aI2583
aI2584
aI2585
aI2586
aI2587
aI2588
aI2589
aI2590
aI2591
aI2592
aI2593
aI2594
aI2595
aI2596
aI2597
aI2598
aI2599
aI2600
aI2601
aI2602
aI2603
aI2604
aI2605
aI2606
aI2607
aI2608
aI2609
aI2610
aI2611
aI2612
aI2613
aI2614
aI2615
aI2616
aI2617
aI2618
aI2619
aI2620
aI2621
aI2622
aI2623
aI2624
aI2625
aI2626
aI2627
aI2628
aI2629
aI2630
aI2631
aI2632
aI2633
aI2634
aI2635
aI2636
aI2637
aI2638
aI2639
aI2640
aI2641
aI2642
aI2643
aI2644
aI2645
aI2646
aI2647
aI2648
aI2649
aI2650
aI2651
aI2652
aI2653
aI2654
aI2655
aI2656
aI2657
aI2658
aI2659
aI2660
aI2661
aI2662
aI2663
aI2664
aI2665
aI2666
aI2667
aI2668
aI2669
aI2670
aI2671
aI2672
aI2673
aI2674
aI2675
aI2676
aI2677
aI2678
aI2679
aI2680
aI2681
aI2682
aI2683
aI2684
aI2685
aI2686
aI2687
aI2688
aI2689
aI2690
aI2691
aI2692
aI2693
aI2694
aI2695
aI2696
aI2697
aI2698
aI2699
aI2700
aI2701
aI2702
aI2703
aI2704
aI2705
aI2706
aI2707
aI2708
aI2709
aI2710
aI2711
aI2712
aI2713
aI2714
aI2715
aI2716
aI2717
aI2718
aI2719
aI2720
aI2721
aI2722
aI2723
aI2724
aI2725
aI2726
aI2727
aI2728
aI2729
aI2730
aI2731
aI2732
aI2733
aI2734
aI2735
aI2736
aI2737
aI2738
aI2739
aI2740
aI2741
aI2742
aI2743
aI2744
aI2745
aI2746
aI2747
aI2748
aI2749
aI2750
aI2751
aI2752
aI2753
aI2754
aI2755
aI2756
aI2757
aI2758
aI2759
aI2760
aI2761
aI2762
aI2763
aI2764
aI2765
aI2766
aI2767
aI2768
aI2769
aI2770
aI2771
aI2772
aI2773
aI2774
aI2775
aI2776
aI2777
aI2778
aI2819
aI2820
aI2821
aI2822
aI2873
aI2874
aI2895
aI2896
aI2897
aI2898
aI2899
aI2900
aI2901
aI2902
aI2903
aI2944
aI2945
aI2946
aI2947
aI2974
aI2975
aI2976
aI2977
aI2978
aI2979
aI2980
aI2981
aI2982
aI2983
aI2984
aI2985
aI2986
aI2987
aI2988
aI2989
aI2990
aI2991
aI2992
aI2993
aI2994
aI2995
aI2996
aI3001
aI3002
aI3013
asS'l_arm_face_list'
p4
(lp5
(lp6
I1
aI2
aI0
aa(lp7
I0
aI2
aI3
aa(lp8
I4
aI5
aI7
aa(lp9
I7
aI5
aI6
aa(lp10
I8
aI9
aI11
aa(lp11
I11
aI9
aI10
aa(lp12
I12
aI13
aI15
aa(lp13
I15
aI13
aI14
aa(lp14
I19
aI20
aI18
aa(lp15
I18
aI20
aI21
aa(lp16
I23
aI24
aI22
aa(lp17
I22
aI24
aI25
aa(lp18
I27
aI28
aI26
aa(lp19
I26
aI28
aI29
aa(lp20
I30
aI31
aI33
aa(lp21
I33
aI31
aI32
aa(lp22
I35
aI1
aI34
aa(lp23
I34
aI1
aI0
aa(lp24
I37
aI38
aI36
aa(lp25
I36
aI38
aI39
aa(lp26
I41
aI42
aI40
aa(lp27
I40
aI42
aI43
aa(lp28
I45
aI46
aI44
aa(lp29
I44
aI46
aI47
aa(lp30
I12
aI48
aI50
aa(lp31
I50
aI48
aI49
aa(lp32
I33
aI51
aI30
aa(lp33
I30
aI51
aI52
aa(lp34
I56
aI57
aI34
aa(lp35
I34
aI57
aI35
aa(lp36
I58
aI59
aI56
aa(lp37
I56
aI59
aI57
aa(lp38
I60
aI61
aI63
aa(lp39
I63
aI61
aI62
aa(lp40
I65
aI66
aI64
aa(lp41
I64
aI66
aI67
aa(lp42
I69
aI70
aI68
aa(lp43
I68
aI70
aI71
aa(lp44
I73
aI74
aI72
aa(lp45
I72
aI74
aI75
aa(lp46
I73
aI77
aI76
aa(lp47
I76
aI77
aI78
aa(lp48
I77
aI41
aI78
aa(lp49
I78
aI41
aI40
aa(lp50
I80
aI81
aI79
aa(lp51
I79
aI81
aI82
aa(lp52
I84
aI85
aI83
aa(lp53
I83
aI85
aI86
aa(lp54
I88
aI89
aI87
aa(lp55
I87
aI89
aI90
aa(lp56
I2
aI88
aI3
aa(lp57
I3
aI88
aI87
aa(lp58
I61
aI91
aI62
aa(lp59
I62
aI91
aI92
aa(lp60
I94
aI95
aI93
aa(lp61
I93
aI95
aI96
aa(lp62
I98
aI99
aI97
aa(lp63
I97
aI99
aI100
aa(lp64
I102
aI103
aI101
aa(lp65
I101
aI103
aI104
aa(lp66
I38
aI105
aI39
aa(lp67
I39
aI105
aI106
aa(lp68
I108
aI60
aI107
aa(lp69
I107
aI60
aI63
aa(lp70
I109
aI110
aI108
aa(lp71
I108
aI110
aI60
aa(lp72
I111
aI112
aI114
aa(lp73
I114
aI112
aI113
aa(lp74
I116
aI117
aI115
aa(lp75
I115
aI117
aI118
aa(lp76
I119
aI120
aI122
aa(lp77
I122
aI120
aI121
aa(lp78
I120
aI92
aI121
aa(lp79
I121
aI92
aI91
aa(lp80
I123
aI52
aI26
aa(lp81
I26
aI52
aI51
aa(lp82
I122
aI121
aI125
aa(lp83
I125
aI121
aI124
aa(lp84
I27
aI37
aI72
aa(lp85
I72
aI37
aI36
aa(lp86
I110
aI100
aI60
aa(lp87
I60
aI100
aI61
aa(lp88
I102
aI109
aI126
aa(lp89
I126
aI109
aI108
aa(lp90
I4
aI128
aI127
aa(lp91
I127
aI128
aI129
aa(lp92
I68
aI71
aI58
aa(lp93
I58
aI71
aI59
aa(lp94
I121
aI91
aI124
aa(lp95
I124
aI91
aI99
aa(lp96
I126
aI108
aI130
aa(lp97
I130
aI108
aI107
aa(lp98
I132
aI70
aI131
aa(lp99
I131
aI70
aI86
aa(lp100
I130
aI20
aI126
aa(lp101
I126
aI20
aI133
aa(lp102
I135
aI94
aI134
aa(lp103
I134
aI94
aI93
aa(lp104
I137
aI138
aI136
aa(lp105
I136
aI138
aI139
aa(lp106
I141
aI137
aI140
aa(lp107
I140
aI137
aI136
aa(lp108
I143
aI144
aI142
aa(lp109
I142
aI144
aI145
aa(lp110
I147
aI148
aI146
aa(lp111
I146
aI148
aI149
aa(lp112
I151
aI152
aI150
aa(lp113
I150
aI152
aI153
aa(lp114
I155
aI156
aI154
aa(lp115
I154
aI156
aI157
aa(lp116
I159
aI160
aI158
aa(lp117
I158
aI160
aI161
aa(lp118
I163
aI164
aI162
aa(lp119
I162
aI164
aI165
aa(lp120
I166
aI167
aI161
aa(lp121
I161
aI167
aI158
aa(lp122
I169
aI170
aI168
aa(lp123
I168
aI170
aI171
aa(lp124
I173
aI174
aI172
aa(lp125
I172
aI174
aI175
aa(lp126
I177
aI144
aI176
aa(lp127
I176
aI144
aI178
aa(lp128
I180
aI181
aI179
aa(lp129
I179
aI181
aI182
aa(lp130
I184
aI185
aI183
aa(lp131
I183
aI185
aI186
aa(lp132
I185
aI170
aI186
aa(lp133
I186
aI170
aI165
aa(lp134
I188
aI159
aI187
aa(lp135
I187
aI159
aI158
aa(lp136
I190
aI191
aI189
aa(lp137
I189
aI191
aI192
aa(lp138
I194
aI195
aI193
aa(lp139
I193
aI195
aI196
aa(lp140
I197
aI198
aI157
aa(lp141
I157
aI198
aI154
aa(lp142
I200
aI201
aI199
aa(lp143
I199
aI201
aI202
aa(lp144
I204
aI205
aI203
aa(lp145
I203
aI205
aI206
aa(lp146
I208
aI206
aI207
aa(lp147
I207
aI206
aI205
aa(lp148
I210
aI211
aI209
aa(lp149
I209
aI211
aI212
aa(lp150
I214
aI215
aI213
aa(lp151
I213
aI215
aI216
aa(lp152
I218
aI219
aI217
aa(lp153
I217
aI219
aI220
aa(lp154
I222
aI223
aI221
aa(lp155
I221
aI223
aI224
aa(lp156
I225
aI226
aI228
aa(lp157
I228
aI226
aI227
aa(lp158
I230
aI231
aI229
aa(lp159
I229
aI231
aI232
aa(lp160
I213
aI216
aI233
aa(lp161
I233
aI216
aI234
aa(lp162
I236
aI237
aI235
aa(lp163
I235
aI237
aI238
aa(lp164
I240
aI241
aI239
aa(lp165
I239
aI241
aI242
aa(lp166
I244
aI245
aI243
aa(lp167
I243
aI245
aI246
aa(lp168
I248
aI249
aI247
aa(lp169
I247
aI249
aI250
aa(lp170
I251
aI252
aI220
aa(lp171
I220
aI252
aI217
aa(lp172
I240
aI254
aI253
aa(lp173
I253
aI254
aI255
aa(lp174
I256
aI245
aI208
aa(lp175
I208
aI245
aI206
aa(lp176
I258
aI259
aI257
aa(lp177
I257
aI259
aI260
aa(lp178
I221
aI224
aI261
aa(lp179
I261
aI224
aI262
aa(lp180
I263
aI264
aI227
aa(lp181
I227
aI264
aI228
aa(lp182
I266
aI267
aI265
aa(lp183
I265
aI267
aI268
aa(lp184
I269
aI229
aI270
aa(lp185
I270
aI229
aI232
aa(lp186
I271
aI272
aI232
aa(lp187
I232
aI272
aI270
aa(lp188
I259
aI258
aI43
aa(lp189
I43
aI258
aI40
aa(lp190
I87
aI90
aI263
aa(lp191
I263
aI90
aI264
aa(lp192
I0
aI3
aI268
aa(lp193
I268
aI3
aI265
aa(lp194
I270
aI58
aI269
aa(lp195
I269
aI58
aI56
aa(lp196
I272
aI68
aI270
aa(lp197
I270
aI68
aI58
aa(lp198
I261
aI262
aI78
aa(lp199
I78
aI262
aI76
aa(lp200
I225
aI273
aI235
aa(lp201
I235
aI273
aI274
aa(lp202
I276
aI277
aI275
aa(lp203
I275
aI277
aI278
aa(lp204
I174
aI279
aI175
aa(lp205
I175
aI279
aI280
aa(lp206
I188
aI281
aI140
aa(lp207
I140
aI281
aI282
aa(lp208
I141
aI147
aI283
aa(lp209
I283
aI147
aI146
aa(lp210
I285
aI204
aI284
aa(lp211
I284
aI204
aI203
aa(lp212
I287
aI288
aI286
aa(lp213
I286
aI288
aI212
aa(lp214
I289
aI290
aI292
aa(lp215
I292
aI290
aI291
aa(lp216
I294
aI295
aI293
aa(lp217
I293
aI295
aI296
aa(lp218
I297
aI298
aI229
aa(lp219
I229
aI298
aI230
aa(lp220
I299
aI300
aI302
aa(lp221
I302
aI300
aI301
aa(lp222
I241
aI244
aI242
aa(lp223
I242
aI244
aI243
aa(lp224
I303
aI288
aI301
aa(lp225
I301
aI288
aI302
aa(lp226
I304
aI299
aI305
aa(lp227
I305
aI299
aI302
aa(lp228
I306
aI297
aI269
aa(lp229
I269
aI297
aI229
aa(lp230
I84
aI83
aI304
aa(lp231
I304
aI83
aI299
aa(lp232
I308
aI309
aI307
aa(lp233
I307
aI309
aI310
aa(lp234
I269
aI56
aI306
aa(lp235
I306
aI56
aI34
aa(lp236
I69
aI300
aI83
aa(lp237
I83
aI300
aI299
aa(lp238
I79
aI82
aI308
aa(lp239
I308
aI82
aI309
aa(lp240
I312
aI195
aI311
aa(lp241
I311
aI195
aI278
aa(lp242
I314
aI157
aI313
aa(lp243
I313
aI157
aI156
aa(lp244
I315
aI236
aI274
aa(lp245
I274
aI236
aI235
aa(lp246
I317
aI143
aI316
aa(lp247
I316
aI143
aI142
aa(lp248
I180
aI276
aI189
aa(lp249
I189
aI276
aI275
aa(lp250
I319
aI184
aI318
aa(lp251
I318
aI184
aI183
aa(lp252
I190
aI194
aI320
aa(lp253
I320
aI194
aI193
aa(lp254
I322
aI252
aI321
aa(lp255
I321
aI252
aI323
aa(lp256
I325
aI228
aI324
aa(lp257
I324
aI228
aI264
aa(lp258
I247
aI233
aI326
aa(lp259
I326
aI233
aI234
aa(lp260
I315
aI251
aI313
aa(lp261
I313
aI251
aI220
aa(lp262
I90
aI327
aI264
aa(lp263
I264
aI327
aI324
aa(lp264
I210
aI256
aI328
aa(lp265
I328
aI256
aI208
aa(lp266
I303
aI329
aI209
aa(lp267
I209
aI329
aI330
aa(lp268
I181
aI138
aI182
aa(lp269
I182
aI138
aI331
aa(lp270
I191
aI160
aI192
aa(lp271
I192
aI160
aI139
aa(lp272
I277
aI279
aI278
aa(lp273
I278
aI279
aI311
aa(lp274
I177
aI148
aI171
aa(lp275
I171
aI148
aI168
aa(lp276
I262
aI324
aI76
aa(lp277
I76
aI324
aI327
aa(lp278
I78
aI40
aI261
aa(lp279
I261
aI40
aI258
aa(lp280
I169
aI281
aI162
aa(lp281
I162
aI281
aI332
aa(lp282
I68
aI272
aI69
aa(lp283
I69
aI272
aI300
aa(lp284
I253
aI255
aI333
aa(lp285
I333
aI255
aI334
aa(lp286
I333
aI285
aI253
aa(lp287
I253
aI285
aI284
aa(lp288
I335
aI336
aI321
aa(lp289
I321
aI336
aI337
aa(lp290
I338
aI339
aI266
aa(lp291
I266
aI339
aI267
aa(lp292
I298
aI297
aI339
aa(lp293
I339
aI297
aI267
aa(lp294
I257
aI221
aI258
aa(lp295
I258
aI221
aI261
aa(lp296
I222
aI335
aI323
aa(lp297
I323
aI335
aI321
aa(lp298
I268
aI267
aI306
aa(lp299
I306
aI267
aI297
aa(lp300
I34
aI0
aI306
aa(lp301
I306
aI0
aI268
aa(lp302
I152
aI312
aI153
aa(lp303
I153
aI312
aI311
aa(lp304
I317
aI173
aI340
aa(lp305
I340
aI173
aI172
aa(lp306
I263
aI265
aI87
aa(lp307
I87
aI265
aI3
aa(lp308
I255
aI155
aI334
aa(lp309
I334
aI155
aI154
aa(lp310
I216
aI218
aI234
aa(lp311
I234
aI218
aI217
aa(lp312
I226
aI338
aI227
aa(lp313
I227
aI338
aI266
aa(lp314
I237
aI254
aI238
aa(lp315
I238
aI254
aI341
aa(lp316
I329
aI231
aI330
aa(lp317
I330
aI231
aI246
aa(lp318
I265
aI263
aI266
aa(lp319
I266
aI263
aI227
aa(lp320
I272
aI271
aI300
aa(lp321
I300
aI271
aI301
aa(lp322
I207
aI342
aI208
aa(lp323
I208
aI342
aI328
aa(lp324
I290
aI328
aI291
aa(lp325
I291
aI328
aI342
aa(lp326
I9
aI343
aI10
aa(lp327
I10
aI343
aI344
aa(lp328
I103
aI28
aI104
aa(lp329
I104
aI28
aI75
aa(lp330
I74
aI89
aI75
aa(lp331
I75
aI89
aI104
aa(lp332
I223
aI273
aI224
aa(lp333
I224
aI273
aI325
aa(lp334
I313
aI220
aI314
aa(lp335
I314
aI220
aI219
aa(lp336
I151
aI319
aI199
aa(lp337
I199
aI319
aI318
aa(lp338
I324
aI262
aI325
aa(lp339
I325
aI262
aI224
aa(lp340
I346
aI347
aI345
aa(lp341
I348
aI349
aI128
aa(lp342
I128
aI349
aI350
aa(lp343
I352
aI353
aI351
aa(lp344
I351
aI353
aI354
aa(lp345
I5
aI346
aI6
aa(lp346
I6
aI346
aI345
aa(lp347
I351
aI354
aI359
aa(lp348
I359
aI354
aI360
aa(lp349
I62
aI92
aI127
aa(lp350
I127
aI92
aI361
aa(lp351
I127
aI361
aI4
aa(lp352
I4
aI361
aI5
aa(lp353
I52
aI123
aI363
aa(lp354
I363
aI123
aI362
aa(lp355
I364
aI363
aI8
aa(lp356
I8
aI363
aI9
aa(lp357
I54
aI53
aI10
aa(lp358
I10
aI53
aI11
aa(lp359
I17
aI16
aI50
aa(lp360
I50
aI16
aI365
aa(lp361
I50
aI365
aI12
aa(lp362
I12
aI365
aI13
aa(lp363
I114
aI113
aI14
aa(lp364
I14
aI113
aI15
aa(lp365
I53
aI55
aI11
aa(lp366
I11
aI55
aI49
aa(lp367
I11
aI49
aI8
aa(lp368
I8
aI49
aI48
aa(lp369
I30
aI52
aI364
aa(lp370
I364
aI52
aI363
aa(lp371
I31
aI30
aI366
aa(lp372
I366
aI30
aI364
aa(lp373
I55
aI17
aI49
aa(lp374
I49
aI17
aI50
aa(lp375
I130
aI107
aI367
aa(lp376
I367
aI107
aI368
aa(lp377
I21
aI367
aI94
aa(lp378
I94
aI367
aI95
aa(lp379
I7
aI348
aI4
aa(lp380
I4
aI348
aI128
aa(lp381
I63
aI62
aI129
aa(lp382
I129
aI62
aI127
aa(lp383
I20
aI130
aI21
aa(lp384
I21
aI130
aI367
aa(lp385
I344
aI54
aI10
aa(lp386
I120
aI119
aI369
aa(lp387
I369
aI119
aI370
aa(lp388
I369
aI370
aI346
aa(lp389
I346
aI370
aI347
aa(lp390
I107
aI63
aI368
aa(lp391
I368
aI63
aI129
aa(lp392
I371
aI372
aI22
aa(lp393
I22
aI372
aI373
aa(lp394
I372
aI352
aI373
aa(lp395
I373
aI352
aI351
aa(lp396
I92
aI120
aI361
aa(lp397
I361
aI120
aI369
aa(lp398
I361
aI369
aI5
aa(lp399
I5
aI369
aI346
aa(lp400
I117
aI116
aI377
aa(lp401
I377
aI116
aI376
aa(lp402
I376
aI356
aI377
aa(lp403
I377
aI356
aI355
aa(lp404
I66
aI378
aI67
aa(lp405
I67
aI378
aI379
aa(lp406
I22
aI373
aI23
aa(lp407
I23
aI373
aI380
aa(lp408
I359
aI380
aI351
aa(lp409
I351
aI380
aI373
aa(lp410
I95
aI350
aI96
aa(lp411
I96
aI350
aI349
aa(lp412
I128
aI350
aI129
aa(lp413
I129
aI350
aI368
aa(lp414
I367
aI368
aI95
aa(lp415
I95
aI368
aI350
aa(lp416
I362
aI18
aI343
aa(lp417
I343
aI18
aI135
aa(lp418
I343
aI9
aI362
aa(lp419
I362
aI9
aI363
aa(lp420
I366
aI364
aI48
aa(lp421
I48
aI364
aI8
aa(lp422
I48
aI12
aI366
aa(lp423
I366
aI12
aI15
aa(lp424
I366
aI15
aI31
aa(lp425
I31
aI15
aI113
aa(lp426
I31
aI113
aI32
aa(lp427
I32
aI113
aI112
aa(lp428
I46
aI105
aI112
aa(lp429
I112
aI105
aI32
aa(lp430
I80
aI42
aI45
aa(lp431
I45
aI42
aI106
aa(lp432
I308
aI259
aI79
aa(lp433
I79
aI259
aI43
aa(lp434
I307
aI260
aI308
aa(lp435
I308
aI260
aI259
aa(lp436
I294
aI336
aI307
aa(lp437
I307
aI336
aI260
aa(lp438
I248
aI381
aI293
aa(lp439
I293
aI381
aI337
aa(lp440
I371
aI383
aI382
aa(lp441
I382
aI383
aI384
aa(lp442
I44
aI385
aI81
aa(lp443
I81
aI385
aI85
aa(lp444
I304
aI309
aI84
aa(lp445
I84
aI309
aI82
aa(lp446
I305
aI310
aI304
aa(lp447
I304
aI310
aI309
aa(lp448
I287
aI295
aI305
aa(lp449
I305
aI295
aI310
aa(lp450
I386
aI249
aI286
aa(lp451
I286
aI249
aI296
aa(lp452
I292
aI213
aI289
aa(lp453
I289
aI213
aI233
aa(lp454
I211
aI386
aI212
aa(lp455
I212
aI386
aI286
aa(lp456
I290
aI289
aI387
aa(lp457
I387
aI289
aI250
aa(lp458
I289
aI233
aI250
aa(lp459
I250
aI233
aI247
aa(lp460
I381
aI326
aI322
aa(lp461
I322
aI326
aI234
aa(lp462
I214
aI388
aI193
aa(lp463
I193
aI388
aI320
aa(lp464
I388
aI389
aI320
aa(lp465
I320
aI389
aI390
aa(lp466
I389
aI166
aI390
aa(lp467
I390
aI166
aI161
aa(lp468
I391
aI167
aI205
aa(lp469
I205
aI167
aI207
aa(lp470
I391
aI392
aI187
aa(lp471
I187
aI392
aI332
aa(lp472
I392
aI163
aI332
aa(lp473
I332
aI163
aI162
aa(lp474
I164
aI393
aI165
aa(lp475
I165
aI393
aI186
aa(lp476
I393
aI198
aI186
aa(lp477
I186
aI198
aI183
aa(lp478
I197
aI200
aI318
aa(lp479
I318
aI200
aI199
aa(lp480
I394
aI201
aI218
aa(lp481
I218
aI201
aI219
aa(lp482
I215
aI394
aI216
aa(lp483
I216
aI394
aI218
aa(lp484
I396
aI397
aI395
aa(lp485
I395
aI397
aI398
aa(lp486
I396
aI400
aI399
aa(lp487
I399
aI400
aI401
aa(lp488
I402
aI403
aI400
aa(lp489
I400
aI403
aI401
aa(lp490
I405
aI406
aI404
aa(lp491
I404
aI406
aI407
aa(lp492
I408
aI409
aI411
aa(lp493
I411
aI409
aI410
aa(lp494
I413
aI414
aI412
aa(lp495
I412
aI414
aI415
aa(lp496
I417
aI418
aI416
aa(lp497
I416
aI418
aI419
aa(lp498
I417
aI421
aI420
aa(lp499
I420
aI421
aI422
aa(lp500
I423
aI424
aI283
aa(lp501
I283
aI424
aI425
aa(lp502
I426
aI427
aI429
aa(lp503
I429
aI427
aI428
aa(lp504
I431
aI432
aI430
aa(lp505
I430
aI432
aI178
aa(lp506
I434
aI432
aI433
aa(lp507
I433
aI432
aI408
aa(lp508
I436
aI410
aI435
aa(lp509
I435
aI410
aI409
aa(lp510
I438
aI439
aI437
aa(lp511
I437
aI439
aI440
aa(lp512
I441
aI431
aI340
aa(lp513
I340
aI431
aI430
aa(lp514
I411
aI406
aI408
aa(lp515
I408
aI406
aI433
aa(lp516
I427
aI426
aI402
aa(lp517
I402
aI426
aI405
aa(lp518
I442
aI443
aI182
aa(lp519
I182
aI443
aI179
aa(lp520
I445
aI443
aI444
aa(lp521
I444
aI443
aI440
aa(lp522
I438
aI397
aI446
aa(lp523
I446
aI397
aI447
aa(lp524
I439
aI421
aI440
aa(lp525
I440
aI421
aI444
aa(lp526
I448
aI424
aI398
aa(lp527
I398
aI424
aI395
aa(lp528
I442
aI448
aI437
aa(lp529
I437
aI448
aI398
aa(lp530
I434
aI429
aI176
aa(lp531
I176
aI429
aI149
aa(lp532
I450
aI451
aI449
aa(lp533
I449
aI451
aI452
aa(lp534
I454
aI455
aI453
aa(lp535
I453
aI455
aI280
aa(lp536
I455
aI451
aI280
aa(lp537
I280
aI451
aI175
aa(lp538
I414
aI418
aI415
aa(lp539
I415
aI418
aI456
aa(lp540
I428
aI423
aI146
aa(lp541
I146
aI423
aI283
aa(lp542
I445
aI454
aI457
aa(lp543
I457
aI454
aI453
aa(lp544
I459
aI460
aI458
aa(lp545
I458
aI460
aI461
aa(lp546
I462
aI463
aI465
aa(lp547
I465
aI463
aI464
aa(lp548
I466
aI467
aI459
aa(lp549
I459
aI467
aI460
aa(lp550
I466
aI469
aI468
aa(lp551
I468
aI469
aI470
aa(lp552
I471
aI472
aI470
aa(lp553
I470
aI472
aI473
aa(lp554
I475
aI476
aI474
aa(lp555
I474
aI476
aI477
aa(lp556
I479
aI480
aI478
aa(lp557
I478
aI480
aI481
aa(lp558
I483
aI484
aI482
aa(lp559
I482
aI484
aI485
aa(lp560
I487
aI488
aI486
aa(lp561
I486
aI488
aI489
aa(lp562
I490
aI491
aI493
aa(lp563
I493
aI491
aI492
aa(lp564
I494
aI495
aI497
aa(lp565
I497
aI495
aI496
aa(lp566
I498
aI465
aI500
aa(lp567
I500
aI465
aI499
aa(lp568
I465
aI464
aI499
aa(lp569
I499
aI464
aI501
aa(lp570
I502
aI503
aI493
aa(lp571
I493
aI503
aI490
aa(lp572
I505
aI506
aI504
aa(lp573
I504
aI506
aI507
aa(lp574
I509
aI510
aI508
aa(lp575
I508
aI510
aI511
aa(lp576
I508
aI511
aI512
aa(lp577
I512
aI511
aI513
aa(lp578
I515
aI516
aI514
aa(lp579
I514
aI516
aI517
aa(lp580
I458
aI518
aI459
aa(lp581
I459
aI518
aI519
aa(lp582
I521
aI522
aI520
aa(lp583
I520
aI522
aI523
aa(lp584
I525
aI526
aI524
aa(lp585
I524
aI526
aI527
aa(lp586
I529
aI530
aI528
aa(lp587
I528
aI530
aI531
aa(lp588
I533
aI534
aI532
aa(lp589
I532
aI534
aI535
aa(lp590
I536
aI537
aI509
aa(lp591
I509
aI537
aI510
aa(lp592
I539
aI540
aI538
aa(lp593
I538
aI540
aI541
aa(lp594
I542
aI511
aI543
aa(lp595
I543
aI511
aI510
aa(lp596
I545
aI515
aI544
aa(lp597
I544
aI515
aI514
aa(lp598
I501
aI546
aI499
aa(lp599
I499
aI546
aI547
aa(lp600
I548
aI500
aI547
aa(lp601
I547
aI500
aI499
aa(lp602
I550
aI496
aI549
aa(lp603
I549
aI496
aI495
aa(lp604
I526
aI525
aI523
aa(lp605
I523
aI525
aI551
aa(lp606
I459
aI519
aI466
aa(lp607
I466
aI519
aI469
aa(lp608
I482
aI526
aI483
aa(lp609
I483
aI526
aI552
aa(lp610
I526
aI482
aI527
aa(lp611
I527
aI482
aI553
aa(lp612
I555
aI556
aI554
aa(lp613
I554
aI556
aI557
aa(lp614
I558
aI559
aI561
aa(lp615
I561
aI559
aI560
aa(lp616
I486
aI489
aI562
aa(lp617
I562
aI489
aI563
aa(lp618
I565
aI509
aI564
aa(lp619
I564
aI509
aI508
aa(lp620
I566
aI536
aI565
aa(lp621
I565
aI536
aI509
aa(lp622
I568
aI569
aI567
aa(lp623
I567
aI569
aI570
aa(lp624
I572
aI462
aI571
aa(lp625
I571
aI462
aI573
aa(lp626
I573
aI462
aI498
aa(lp627
I498
aI462
aI465
aa(lp628
I491
aI570
aI492
aa(lp629
I492
aI570
aI574
aa(lp630
I492
aI574
aI576
aa(lp631
I576
aI574
aI575
aa(lp632
I493
aI492
aI577
aa(lp633
I577
aI492
aI576
aa(lp634
I493
aI577
aI502
aa(lp635
I502
aI577
aI578
aa(lp636
I576
aI575
aI580
aa(lp637
I580
aI575
aI579
aa(lp638
I580
aI581
aI576
aa(lp639
I576
aI581
aI577
aa(lp640
I581
aI582
aI577
aa(lp641
I577
aI582
aI578
aa(lp642
I584
aI537
aI583
aa(lp643
I583
aI537
aI585
aa(lp644
I587
aI588
aI586
aa(lp645
I586
aI588
aI496
aa(lp646
I496
aI550
aI586
aa(lp647
I586
aI550
aI589
aa(lp648
I591
aI592
aI590
aa(lp649
I590
aI592
aI593
aa(lp650
I594
aI595
aI471
aa(lp651
I471
aI595
aI596
aa(lp652
I597
aI598
aI503
aa(lp653
I503
aI598
aI490
aa(lp654
I523
aI551
aI520
aa(lp655
I520
aI551
aI599
aa(lp656
I600
aI601
aI603
aa(lp657
I603
aI601
aI602
aa(lp658
I605
aI606
aI604
aa(lp659
I604
aI606
aI607
aa(lp660
I608
aI609
aI533
aa(lp661
I533
aI609
aI534
aa(lp662
I610
aI475
aI612
aa(lp663
I612
aI475
aI611
aa(lp664
I531
aI614
aI613
aa(lp665
I613
aI614
aI615
aa(lp666
I617
aI618
aI616
aa(lp667
I616
aI618
aI619
aa(lp668
I559
aI558
aI540
aa(lp669
I540
aI558
aI541
aa(lp670
I558
aI620
aI541
aa(lp671
I541
aI620
aI621
aa(lp672
I516
aI622
aI517
aa(lp673
I517
aI622
aI623
aa(lp674
I536
aI566
aI624
aa(lp675
I624
aI566
aI625
aa(lp676
I524
aI527
aI613
aa(lp677
I613
aI527
aI626
aa(lp678
I627
aI473
aI611
aa(lp679
I611
aI473
aI472
aa(lp680
I628
aI626
aI553
aa(lp681
I553
aI626
aI527
aa(lp682
I522
aI521
aI594
aa(lp683
I594
aI521
aI595
aa(lp684
I630
aI631
aI629
aa(lp685
I629
aI631
aI632
aa(lp686
I634
aI635
aI633
aa(lp687
I633
aI635
aI636
aa(lp688
I638
aI639
aI637
aa(lp689
I637
aI639
aI640
aa(lp690
I640
aI639
aI641
aa(lp691
I641
aI639
aI642
aa(lp692
I644
aI645
aI643
aa(lp693
I643
aI645
aI646
aa(lp694
I479
aI648
aI647
aa(lp695
I647
aI648
aI649
aa(lp696
I650
aI651
aI478
aa(lp697
I478
aI651
aI652
aa(lp698
I621
aI653
aI541
aa(lp699
I541
aI653
aI538
aa(lp700
I654
aI655
aI656
aa(lp701
I656
aI655
aI610
aa(lp702
I657
aI528
aI628
aa(lp703
I628
aI528
aI626
aa(lp704
I516
aI603
aI622
aa(lp705
I622
aI603
aI658
aa(lp706
I606
aI638
aI607
aa(lp707
I607
aI638
aI637
aa(lp708
I528
aI531
aI626
aa(lp709
I626
aI531
aI613
aa(lp710
I660
aI661
aI659
aa(lp711
I659
aI661
aI662
aa(lp712
I635
aI506
aI636
aa(lp713
I636
aI506
aI663
aa(lp714
I622
aI658
aI505
aa(lp715
I505
aI658
aI664
aa(lp716
I665
aI666
aI668
aa(lp717
I668
aI666
aI667
aa(lp718
I648
aI479
aI652
aa(lp719
I652
aI479
aI478
aa(lp720
I474
aI627
aI475
aa(lp721
I475
aI627
aI611
aa(lp722
I653
aI648
aI538
aa(lp723
I538
aI648
aI652
aa(lp724
I648
aI653
aI649
aa(lp725
I649
aI653
aI669
aa(lp726
I539
aI670
aI540
aa(lp727
I540
aI670
aI671
aa(lp728
I542
aI673
aI672
aa(lp729
I672
aI673
aI674
aa(lp730
I478
aI481
aI650
aa(lp731
I650
aI481
aI675
aa(lp732
I480
aI479
aI676
aa(lp733
I676
aI479
aI647
aa(lp734
I674
aI677
aI647
aa(lp735
I647
aI677
aI676
aa(lp736
I673
aI678
aI674
aa(lp737
I674
aI678
aI677
aa(lp738
I678
aI673
aI679
aa(lp739
I679
aI673
aI680
aa(lp740
I672
aI674
aI649
aa(lp741
I649
aI674
aI647
aa(lp742
I681
aI545
aI646
aa(lp743
I646
aI545
aI682
aa(lp744
I673
aI542
aI680
aa(lp745
I680
aI542
aI543
aa(lp746
I583
aI683
aI584
aa(lp747
I584
aI683
aI684
aa(lp748
I686
aI684
aI685
aa(lp749
I685
aI684
aI683
aa(lp750
I661
aI687
aI688
aa(lp751
I689
aI690
aI687
aa(lp752
I687
aI690
aI688
aa(lp753
I474
aI477
aI689
aa(lp754
I689
aI477
aI690
aa(lp755
I610
aI691
aI475
aa(lp756
I475
aI691
aI476
aa(lp757
I692
aI693
aI695
aa(lp758
I695
aI693
aI694
aa(lp759
I682
aI696
aI646
aa(lp760
I646
aI696
aI643
aa(lp761
I545
aI544
aI682
aa(lp762
I682
aI544
aI697
aa(lp763
I627
aI474
aI698
aa(lp764
I698
aI474
aI689
aa(lp765
I600
aI515
aI681
aa(lp766
I681
aI515
aI545
aa(lp767
I618
aI699
aI619
aa(lp768
I619
aI699
aI604
aa(lp769
I679
aI662
aI678
aa(lp770
I678
aI662
aI661
aa(lp771
I661
aI660
aI687
aa(lp772
I687
aI660
aI700
aa(lp773
I700
aI701
aI698
aa(lp774
I698
aI701
aI702
aa(lp775
I547
aI703
aI548
aa(lp776
I548
aI703
aI704
aa(lp777
I705
aI550
aI706
aa(lp778
I706
aI550
aI549
aa(lp779
I550
aI705
aI589
aa(lp780
I589
aI705
aI707
aa(lp781
I708
aI701
aI703
aa(lp782
I703
aI701
aI700
aa(lp783
I709
aI710
aI507
aa(lp784
I507
aI710
aI504
aa(lp785
I712
aI707
aI711
aa(lp786
I711
aI707
aI705
aa(lp787
I706
aI659
aI705
aa(lp788
I705
aI659
aI711
aa(lp789
I713
aI463
aI572
aa(lp790
I572
aI463
aI462
aa(lp791
I628
aI714
aI657
aa(lp792
I657
aI714
aI715
aa(lp793
I556
aI716
aI557
aa(lp794
I557
aI716
aI717
aa(lp795
I712
aI718
aI447
aa(lp796
I447
aI718
aI446
aa(lp797
I401
aI589
aI399
aa(lp798
I399
aI589
aI707
aa(lp799
I586
aI403
aI587
aa(lp800
I587
aI403
aI404
aa(lp801
I579
aI587
aI407
aa(lp802
I407
aI587
aI404
aa(lp803
I407
aI719
aI579
aa(lp804
I579
aI719
aI580
aa(lp805
I581
aI580
aI720
aa(lp806
I720
aI580
aI719
aa(lp807
I415
aI456
aI624
aa(lp808
I624
aI456
aI585
aa(lp809
I456
aI420
aI585
aa(lp810
I585
aI420
aI583
aa(lp811
I422
aI721
aI683
aa(lp812
I683
aI721
aI685
aa(lp813
I721
aI446
aI685
aa(lp814
I685
aI446
aI718
aa(lp815
I707
aI712
aI399
aa(lp816
I399
aI712
aI447
aa(lp817
I589
aI401
aI586
aa(lp818
I586
aI401
aI403
aa(lp819
I710
aI722
aI504
aa(lp820
I504
aI722
aI623
aa(lp821
I723
aI724
aI534
aa(lp822
I534
aI724
aI535
aa(lp823
I590
aI593
aI725
aa(lp824
I725
aI593
aI726
aa(lp825
I728
aI729
aI727
aa(lp826
I727
aI729
aI730
aa(lp827
I570
aI491
aI567
aa(lp828
I567
aI491
aI731
aa(lp829
I732
aI731
aI490
aa(lp830
I490
aI731
aI491
aa(lp831
I733
aI621
aI734
aa(lp832
I734
aI621
aI620
aa(lp833
I607
aI637
aI599
aa(lp834
I599
aI637
aI520
aa(lp835
I521
aI520
aI640
aa(lp836
I640
aI520
aI637
aa(lp837
I521
aI640
aI595
aa(lp838
I595
aI640
aI641
aa(lp839
I735
aI596
aI641
aa(lp840
I641
aI596
aI595
aa(lp841
I736
aI737
aI735
aa(lp842
I735
aI737
aI596
aa(lp843
I681
aI738
aI600
aa(lp844
I600
aI738
aI601
aa(lp845
I656
aI739
aI654
aa(lp846
I654
aI739
aI740
aa(lp847
I741
aI742
aI568
aa(lp848
I568
aI742
aI569
aa(lp849
I468
aI743
aI744
aa(lp850
I660
aI704
aI700
aa(lp851
I700
aI704
aI703
aa(lp852
I524
aI745
aI525
aa(lp853
I525
aI745
aI617
aa(lp854
I605
aI644
aI633
aa(lp855
I633
aI644
aI643
aa(lp856
I525
aI617
aI551
aa(lp857
I551
aI617
aI616
aa(lp858
I675
aI691
aI746
aa(lp859
I746
aI691
aI747
aa(lp860
I618
aI617
aI748
aa(lp861
I748
aI617
aI745
aa(lp862
I565
aI502
aI566
aa(lp863
I566
aI502
aI578
aa(lp864
I622
aI505
aI623
aa(lp865
I623
aI505
aI504
aa(lp866
I587
aI579
aI588
aa(lp867
I588
aI579
aI575
aa(lp868
I537
aI536
aI585
aa(lp869
I585
aI536
aI624
aa(lp870
I749
aI750
aI517
aa(lp871
I517
aI750
aI514
aa(lp872
I736
aI751
aI737
aa(lp873
I737
aI751
aI612
aa(lp874
I533
aI614
aI608
aa(lp875
I608
aI614
aI752
aa(lp876
I748
aI745
aI532
aa(lp877
I532
aI745
aI615
aa(lp878
I753
aI754
aI746
aa(lp879
I746
aI754
aI675
aa(lp880
I505
aI664
aI506
aa(lp881
I506
aI664
aI663
aa(lp882
I516
aI515
aI603
aa(lp883
I603
aI515
aI600
aa(lp884
I540
aI671
aI559
aa(lp885
I559
aI671
aI755
aa(lp886
I532
aI615
aI533
aa(lp887
I533
aI615
aI614
aa(lp888
I754
aI753
aI723
aa(lp889
I723
aI753
aI724
aa(lp890
I538
aI652
aI539
aa(lp891
I539
aI652
aI651
aa(lp892
I756
aI686
aI718
aa(lp893
I718
aI686
aI685
aa(lp894
I758
aI709
aI757
aa(lp895
I757
aI709
aI507
aa(lp896
I692
aI695
aI759
aa(lp897
I759
aI695
aI697
aa(lp898
I634
aI696
aI694
aa(lp899
I694
aI696
aI695
aa(lp900
I693
aI758
aI694
aa(lp901
I694
aI758
aI757
aa(lp902
I696
aI634
aI643
aa(lp903
I643
aI634
aI633
aa(lp904
I699
aI740
aI604
aa(lp905
I604
aI740
aI739
aa(lp906
I737
aI472
aI596
aa(lp907
I596
aI472
aI471
aa(lp908
I689
aI687
aI698
aa(lp909
I698
aI687
aI700
aa(lp910
I759
aI697
aI760
aa(lp911
I760
aI697
aI544
aa(lp912
I611
aI472
aI612
aa(lp913
I612
aI472
aI737
aa(lp914
I620
aI557
aI734
aa(lp915
I734
aI557
aI717
aa(lp916
I711
aI756
aI712
aa(lp917
I712
aI756
aI718
aa(lp918
I722
aI749
aI623
aa(lp919
I623
aI749
aI517
aa(lp920
I512
aI761
aI508
aa(lp921
I508
aI761
aI564
aa(lp922
I553
aI762
aI628
aa(lp923
I628
aI762
aI714
aa(lp924
I413
aI436
aI449
aa(lp925
I449
aI436
aI435
aa(lp926
I546
aI708
aI547
aa(lp927
I547
aI708
aI703
aa(lp928
I720
aI763
aI581
aa(lp929
I581
aI763
aI582
aa(lp930
I412
aI415
aI625
aa(lp931
I625
aI415
aI624
aa(lp932
I420
aI422
aI583
aa(lp933
I583
aI422
aI683
aa(lp934
I761
aI597
aI564
aa(lp935
I564
aI597
aI503
aa(lp936
I729
aI725
aI730
aa(lp937
I730
aI725
aI726
aa(lp938
I482
aI485
aI553
aa(lp939
I553
aI485
aI762
aa(lp940
I765
aI562
aI764
aa(lp941
I764
aI562
aI563
aa(lp942
I699
aI618
aI766
aa(lp943
I766
aI618
aI748
aa(lp944
I604
aI607
aI619
aa(lp945
I619
aI607
aI599
aa(lp946
I632
aI767
aI629
aa(lp947
I629
aI767
aI651
aa(lp948
I768
aI769
aI754
aa(lp949
I754
aI769
aI770
aa(lp950
I551
aI616
aI599
aa(lp951
I599
aI616
aI619
aa(lp952
I738
aI645
aI751
aa(lp953
I751
aI645
aI656
aa(lp954
I751
aI656
aI612
aa(lp955
I612
aI656
aI610
aa(lp956
I750
aI760
aI514
aa(lp957
I514
aI760
aI544
aa(lp958
I603
aI602
aI658
aa(lp959
I658
aI602
aI642
aa(lp960
I570
aI569
aI574
aa(lp961
I574
aI569
aI497
aa(lp962
I574
aI497
aI575
aa(lp963
I575
aI497
aI588
aa(lp964
I494
aI497
aI742
aa(lp965
I742
aI497
aI569
aa(lp966
I727
aI765
aI728
aa(lp967
I728
aI765
aI764
aa(lp968
I473
aI627
aI702
aa(lp969
I702
aI627
aI698
aa(lp970
I682
aI697
aI696
aa(lp971
I696
aI697
aI695
aa(lp972
I745
aI524
aI615
aa(lp973
I615
aI524
aI613
aa(lp974
I635
aI634
aI757
aa(lp975
I757
aI634
aI694
aa(lp976
I632
aI631
aI666
aa(lp977
I666
aI631
aI667
aa(lp978
I450
aI441
aI172
aa(lp979
I172
aI441
aI340
aa(lp980
I564
aI503
aI565
aa(lp981
I565
aI503
aI502
aa(lp982
I506
aI635
aI507
aa(lp983
I507
aI635
aI757
aa(lp984
I582
aI625
aI578
aa(lp985
I578
aI625
aI566
aa(lp986
I763
aI412
aI582
aa(lp987
I582
aI412
aI625
aa(lp988
I769
aI630
aI770
aa(lp989
I770
aI630
aI629
aa(lp990
I497
aI496
aI588
aa(lp991
I723
aI771
aI754
aa(lp992
I754
aI771
aI768
aa(lp993
I760
aI772
aI759
aa(lp994
I759
aI772
aI773
aa(lp995
I774
aI772
aI750
aa(lp996
I750
aI772
aI760
aa(lp997
I749
aI775
aI750
aa(lp998
I750
aI775
aI774
aa(lp999
I722
aI776
aI749
aa(lp1000
I749
aI776
aI775
aa(lp1001
I759
aI773
aI692
aa(lp1002
I692
aI773
aI777
aa(lp1003
I692
aI777
aI693
aa(lp1004
I693
aI777
aI778
aa(lp1005
I778
aI779
aI693
aa(lp1006
I693
aI779
aI758
aa(lp1007
I780
aI777
aI781
aa(lp1008
I781
aI777
aI773
aa(lp1009
I783
aI784
aI782
aa(lp1010
I782
aI784
aI785
aa(lp1011
I782
aI786
aI783
aa(lp1012
I783
aI786
aI787
aa(lp1013
I783
aI788
aI784
aa(lp1014
I784
aI788
aI789
aa(lp1015
I790
aI791
aI788
aa(lp1016
I788
aI791
aI792
aa(lp1017
I792
aI793
aI788
aa(lp1018
I788
aI793
aI789
aa(lp1019
I793
aI781
aI789
aa(lp1020
I789
aI781
aI794
aa(lp1021
I790
aI788
aI787
aa(lp1022
I787
aI788
aI783
aa(lp1023
I795
aI796
aI798
aa(lp1024
I798
aI796
aI797
aa(lp1025
I798
aI787
aI795
aa(lp1026
I795
aI787
aI786
aa(lp1027
I789
aI794
aI784
aa(lp1028
I784
aI794
aI785
aa(lp1029
I772
aI774
aI794
aa(lp1030
I794
aI774
aI785
aa(lp1031
I785
aI774
aI799
aa(lp1032
I799
aI774
aI775
aa(lp1033
I782
aI785
aI800
aa(lp1034
I800
aI785
aI799
aa(lp1035
I786
aI782
aI801
aa(lp1036
I801
aI782
aI800
aa(lp1037
I772
aI794
aI773
aa(lp1038
I773
aI794
aI781
aa(lp1039
I795
aI786
aI802
aa(lp1040
I802
aI786
aI801
aa(lp1041
I804
aI801
aI803
aa(lp1042
I803
aI801
aI800
aa(lp1043
I801
aI804
aI802
aa(lp1044
I802
aI804
aI805
aa(lp1045
I807
aI804
aI806
aa(lp1046
I806
aI804
aI803
aa(lp1047
I808
aI809
aI803
aa(lp1048
I803
aI809
aI806
aa(lp1049
I804
aI807
aI805
aa(lp1050
I805
aI807
aI810
aa(lp1051
I800
aI799
aI803
aa(lp1052
I803
aI799
aI808
aa(lp1053
I776
aI808
aI775
aa(lp1054
I775
aI808
aI799
aa(lp1055
I802
aI811
aI795
aa(lp1056
I795
aI811
aI796
aa(lp1057
I781
aI793
aI812
aa(lp1058
I812
aI793
aI792
aa(lp1059
I812
aI792
aI813
aa(lp1060
I813
aI792
aI791
aa(lp1061
I814
aI780
aI812
aa(lp1062
I812
aI780
aI781
aa(lp1063
I813
aI815
aI812
aa(lp1064
I812
aI815
aI814
aa(lp1065
I813
aI791
aI817
aa(lp1066
I817
aI791
aI816
aa(lp1067
I818
aI776
aI710
aa(lp1068
I710
aI776
aI722
aa(lp1069
I779
aI819
aI758
aa(lp1070
I758
aI819
aI709
aa(lp1071
I710
aI709
aI818
aa(lp1072
I818
aI709
aI819
aa(lp1073
I818
aI819
aI809
aa(lp1074
I809
aI819
aI820
aa(lp1075
I809
aI820
aI806
aa(lp1076
I806
aI820
aI821
aa(lp1077
I822
aI820
aI779
aa(lp1078
I779
aI820
aI819
aa(lp1079
I808
aI776
aI809
aa(lp1080
I809
aI776
aI818
aa(lp1081
I823
aI822
aI778
aa(lp1082
I778
aI822
aI779
aa(lp1083
I777
aI780
aI778
aa(lp1084
I778
aI780
aI823
aa(lp1085
I780
aI814
aI823
aa(lp1086
I823
aI814
aI824
aa(lp1087
I824
aI825
aI823
aa(lp1088
I823
aI825
aI822
aa(lp1089
I826
aI827
aI824
aa(lp1090
I824
aI827
aI825
aa(lp1091
I825
aI821
aI822
aa(lp1092
I822
aI821
aI820
aa(lp1093
I821
aI825
aI828
aa(lp1094
I828
aI825
aI827
aa(lp1095
I814
aI815
aI824
aa(lp1096
I824
aI815
aI826
aa(lp1097
I826
aI815
aI829
aa(lp1098
I829
aI815
aI830
aa(lp1099
I832
aI833
aI831
aa(lp1100
I831
aI833
aI829
aa(lp1101
I827
aI826
aI833
aa(lp1102
I833
aI826
aI829
aa(lp1103
I829
aI830
aI831
aa(lp1104
I831
aI830
aI811
aa(lp1105
I796
aI811
aI817
aa(lp1106
I817
aI811
aI830
aa(lp1107
I815
aI813
aI830
aa(lp1108
I830
aI813
aI817
aa(lp1109
I828
aI807
aI821
aa(lp1110
I821
aI807
aI806
aa(lp1111
I832
aI810
aI828
aa(lp1112
I828
aI810
aI807
aa(lp1113
I832
aI828
aI833
aa(lp1114
I833
aI828
aI827
aa(lp1115
I831
aI805
aI832
aa(lp1116
I832
aI805
aI810
aa(lp1117
I811
aI802
aI831
aa(lp1118
I831
aI802
aI805
aa(lp1119
I797
aI790
aI798
aa(lp1120
I798
aI790
aI787
aa(lp1121
I797
aI796
aI816
aa(lp1122
I816
aI796
aI817
aa(lp1123
I791
aI790
aI816
aa(lp1124
I816
aI790
aI797
aa(lp1125
I601
aI736
aI602
aa(lp1126
I602
aI736
aI735
aa(lp1127
I633
aI636
aI605
aa(lp1128
I605
aI636
aI606
aa(lp1129
I664
aI639
aI663
aa(lp1130
I663
aI639
aI638
aa(lp1131
I658
aI642
aI664
aa(lp1132
I664
aI642
aI639
aa(lp1133
I656
aI645
aI739
aa(lp1134
I739
aI645
aI644
aa(lp1135
I636
aI663
aI606
aa(lp1136
I606
aI663
aI638
aa(lp1137
I751
aI736
aI738
aa(lp1138
I738
aI736
aI601
aa(lp1139
I604
aI739
aI605
aa(lp1140
I605
aI739
aI644
aa(lp1141
I738
aI681
aI645
aa(lp1142
I645
aI681
aI646
aa(lp1143
I641
aI642
aI735
aa(lp1144
I735
aI642
aI602
aa(lp1145
I835
aI836
aI834
aa(lp1146
I834
aI836
aI837
aa(lp1147
I839
aI840
aI838
aa(lp1148
I838
aI840
aI841
aa(lp1149
I843
aI839
aI842
aa(lp1150
I842
aI839
aI838
aa(lp1151
I844
aI845
aI847
aa(lp1152
I847
aI845
aI846
aa(lp1153
I848
aI849
aI724
aa(lp1154
I724
aI849
aI535
aa(lp1155
I840
aI850
aI841
aa(lp1156
I841
aI850
aI851
aa(lp1157
I853
aI854
aI852
aa(lp1158
I852
aI854
aI855
aa(lp1159
I766
aI856
aI699
aa(lp1160
I699
aI856
aI857
aa(lp1161
I699
aI857
aI740
aa(lp1162
I740
aI857
aI858
aa(lp1163
I860
aI861
aI859
aa(lp1164
I859
aI861
aI862
aa(lp1165
I840
aI847
aI850
aa(lp1166
I850
aI847
aI863
aa(lp1167
I535
aI849
aI766
aa(lp1168
I766
aI849
aI856
aa(lp1169
I854
aI836
aI855
aa(lp1170
I855
aI836
aI864
aa(lp1171
I850
aI863
aI835
aa(lp1172
I835
aI863
aI865
aa(lp1173
I866
aI843
aI862
aa(lp1174
I862
aI843
aI867
aa(lp1175
I869
aI870
aI868
aa(lp1176
I868
aI870
aI871
aa(lp1177
I862
aI867
aI859
aa(lp1178
I859
aI867
aI872
aa(lp1179
I843
aI842
aI867
aa(lp1180
I867
aI842
aI873
aa(lp1181
I839
aI843
aI844
aa(lp1182
I844
aI843
aI866
aa(lp1183
I874
aI875
aI837
aa(lp1184
I837
aI875
aI834
aa(lp1185
I875
aI876
aI834
aa(lp1186
I834
aI876
aI851
aa(lp1187
I866
aI877
aI844
aa(lp1188
I844
aI877
aI845
aa(lp1189
I848
aI860
aI852
aa(lp1190
I852
aI860
aI859
aa(lp1191
I850
aI835
aI851
aa(lp1192
I851
aI835
aI834
aa(lp1193
I878
aI879
aI841
aa(lp1194
I841
aI879
aI838
aa(lp1195
I835
aI865
aI836
aa(lp1196
I836
aI865
aI864
aa(lp1197
I840
aI839
aI847
aa(lp1198
I847
aI839
aI844
aa(lp1199
I881
aI874
aI880
aa(lp1200
I880
aI874
aI837
aa(lp1201
I868
aI871
aI882
aa(lp1202
I882
aI871
aI873
aa(lp1203
I853
aI872
aI870
aa(lp1204
I870
aI872
aI871
aa(lp1205
I870
aI869
aI880
aa(lp1206
I880
aI869
aI881
aa(lp1207
I872
aI853
aI859
aa(lp1208
I859
aI853
aI852
aa(lp1209
I882
aI873
aI883
aa(lp1210
I883
aI873
aI842
aa(lp1211
I876
aI878
aI851
aa(lp1212
I851
aI878
aI841
aa(lp1213
I861
aI746
aI877
aa(lp1214
I877
aI746
aI747
aa(lp1215
I879
aI883
aI838
aa(lp1216
I838
aI883
aI842
aa(lp1217
I847
aI846
aI863
aa(lp1218
I863
aI846
aI858
aa(lp1219
I867
aI873
aI872
aa(lp1220
I872
aI873
aI871
aa(lp1221
I854
aI853
aI880
aa(lp1222
I880
aI853
aI870
aa(lp1223
I836
aI854
aI837
aa(lp1224
I837
aI854
aI880
aa(lp1225
I883
aI884
aI882
aa(lp1226
I882
aI884
aI885
aa(lp1227
I886
aI884
aI879
aa(lp1228
I879
aI884
aI883
aa(lp1229
I887
aI886
aI878
aa(lp1230
I878
aI886
aI879
aa(lp1231
I888
aI887
aI876
aa(lp1232
I876
aI887
aI878
aa(lp1233
I882
aI885
aI868
aa(lp1234
I868
aI885
aI889
aa(lp1235
I868
aI889
aI869
aa(lp1236
I869
aI889
aI890
aa(lp1237
I891
aI881
aI890
aa(lp1238
I890
aI881
aI869
aa(lp1239
I892
aI889
aI893
aa(lp1240
I893
aI889
aI885
aa(lp1241
I895
aI896
aI894
aa(lp1242
I894
aI896
aI897
aa(lp1243
I896
aI898
aI897
aa(lp1244
I897
aI898
aI899
aa(lp1245
I896
aI900
aI898
aa(lp1246
I898
aI900
aI901
aa(lp1247
I902
aI903
aI900
aa(lp1248
I900
aI903
aI904
aa(lp1249
I904
aI905
aI900
aa(lp1250
I900
aI905
aI901
aa(lp1251
I902
aI900
aI895
aa(lp1252
I895
aI900
aI896
aa(lp1253
I895
aI894
aI907
aa(lp1254
I907
aI894
aI906
aa(lp1255
I901
aI908
aI898
aa(lp1256
I898
aI908
aI899
aa(lp1257
I884
aI886
aI908
aa(lp1258
I908
aI886
aI899
aa(lp1259
I899
aI886
aI909
aa(lp1260
I909
aI886
aI887
aa(lp1261
I897
aI899
aI910
aa(lp1262
I910
aI899
aI909
aa(lp1263
I911
aI894
aI910
aa(lp1264
I910
aI894
aI897
aa(lp1265
I905
aI893
aI901
aa(lp1266
I901
aI893
aI908
aa(lp1267
I884
aI908
aI885
aa(lp1268
I885
aI908
aI893
aa(lp1269
I894
aI911
aI906
aa(lp1270
I906
aI911
aI912
aa(lp1271
I914
aI911
aI913
aa(lp1272
I913
aI911
aI910
aa(lp1273
I911
aI914
aI912
aa(lp1274
I912
aI914
aI915
aa(lp1275
I917
aI914
aI916
aa(lp1276
I916
aI914
aI913
aa(lp1277
I918
aI919
aI913
aa(lp1278
I913
aI919
aI916
aa(lp1279
I915
aI914
aI920
aa(lp1280
I920
aI914
aI917
aa(lp1281
I909
aI918
aI910
aa(lp1282
I910
aI918
aI913
aa(lp1283
I888
aI918
aI887
aa(lp1284
I887
aI918
aI909
aa(lp1285
I912
aI921
aI906
aa(lp1286
I906
aI921
aI922
aa(lp1287
I906
aI922
aI907
aa(lp1288
I907
aI922
aI923
aa(lp1289
I893
aI905
aI924
aa(lp1290
I924
aI905
aI904
aa(lp1291
I903
aI925
aI904
aa(lp1292
I904
aI925
aI924
aa(lp1293
I926
aI892
aI924
aa(lp1294
I924
aI892
aI893
aa(lp1295
I927
aI926
aI925
aa(lp1296
I925
aI926
aI924
aa(lp1297
I903
aI928
aI925
aa(lp1298
I925
aI928
aI929
aa(lp1299
I923
aI922
aI928
aa(lp1300
I928
aI922
aI929
aa(lp1301
I930
aI888
aI875
aa(lp1302
I875
aI888
aI876
aa(lp1303
I891
aI931
aI881
aa(lp1304
I881
aI931
aI874
aa(lp1305
I875
aI874
aI930
aa(lp1306
I930
aI874
aI931
aa(lp1307
I930
aI931
aI919
aa(lp1308
I919
aI931
aI932
aa(lp1309
I919
aI932
aI916
aa(lp1310
I916
aI932
aI933
aa(lp1311
I934
aI932
aI891
aa(lp1312
I891
aI932
aI931
aa(lp1313
I919
aI918
aI930
aa(lp1314
I930
aI918
aI888
aa(lp1315
I935
aI934
aI890
aa(lp1316
I890
aI934
aI891
aa(lp1317
I889
aI892
aI890
aa(lp1318
I890
aI892
aI935
aa(lp1319
I935
aI892
aI936
aa(lp1320
I936
aI892
aI926
aa(lp1321
I936
aI937
aI935
aa(lp1322
I935
aI937
aI934
aa(lp1323
I938
aI939
aI936
aa(lp1324
I936
aI939
aI937
aa(lp1325
I937
aI933
aI934
aa(lp1326
I934
aI933
aI932
aa(lp1327
I933
aI937
aI940
aa(lp1328
I940
aI937
aI939
aa(lp1329
I927
aI938
aI926
aa(lp1330
I926
aI938
aI936
aa(lp1331
I938
aI927
aI941
aa(lp1332
I941
aI927
aI942
aa(lp1333
I944
aI945
aI943
aa(lp1334
I943
aI945
aI941
aa(lp1335
I939
aI938
aI945
aa(lp1336
I945
aI938
aI941
aa(lp1337
I941
aI942
aI943
aa(lp1338
I943
aI942
aI921
aa(lp1339
I922
aI921
aI929
aa(lp1340
I929
aI921
aI942
aa(lp1341
I927
aI925
aI942
aa(lp1342
I942
aI925
aI929
aa(lp1343
I940
aI917
aI933
aa(lp1344
I933
aI917
aI916
aa(lp1345
I944
aI920
aI940
aa(lp1346
I940
aI920
aI917
aa(lp1347
I944
aI940
aI945
aa(lp1348
I945
aI940
aI939
aa(lp1349
I943
aI915
aI944
aa(lp1350
I944
aI915
aI920
aa(lp1351
I921
aI912
aI943
aa(lp1352
I943
aI912
aI915
aa(lp1353
I923
aI902
aI907
aa(lp1354
I907
aI902
aI895
aa(lp1355
I903
aI902
aI928
aa(lp1356
I928
aI902
aI923
aa(lp1357
I845
aI655
aI846
aa(lp1358
I846
aI655
aI654
aa(lp1359
I852
aI855
aI848
aa(lp1360
I848
aI855
aI849
aa(lp1361
I865
aI857
aI864
aa(lp1362
I864
aI857
aI856
aa(lp1363
I863
aI858
aI865
aa(lp1364
I865
aI858
aI857
aa(lp1365
I746
aI861
aI753
aa(lp1366
I753
aI861
aI860
aa(lp1367
I855
aI864
aI849
aa(lp1368
I849
aI864
aI856
aa(lp1369
I877
aI747
aI845
aa(lp1370
I845
aI747
aI655
aa(lp1371
I724
aI753
aI848
aa(lp1372
I848
aI753
aI860
aa(lp1373
I877
aI866
aI861
aa(lp1374
I861
aI866
aI862
aa(lp1375
I740
aI858
aI654
aa(lp1376
I654
aI858
aI846
aa(lp1377
I691
aI610
aI747
aa(lp1378
I747
aI610
aI655
aa(lp1379
I481
aI476
aI675
aa(lp1380
I675
aI476
aI691
aa(lp1381
I480
aI477
aI481
aa(lp1382
I481
aI477
aI476
aa(lp1383
I676
aI690
aI480
aa(lp1384
I480
aI690
aI477
aa(lp1385
I946
aI947
aI949
aa(lp1386
I949
aI947
aI948
aa(lp1387
I951
aI952
aI950
aa(lp1388
I950
aI952
aI953
aa(lp1389
I955
aI951
aI954
aa(lp1390
I954
aI951
aI950
aa(lp1391
I957
aI958
aI956
aa(lp1392
I956
aI958
aI959
aa(lp1393
I952
aI960
aI953
aa(lp1394
I953
aI960
aI961
aa(lp1395
I963
aI964
aI962
aa(lp1396
I962
aI964
aI965
aa(lp1397
I609
aI966
aI534
aa(lp1398
I534
aI966
aI967
aa(lp1399
I534
aI967
aI723
aa(lp1400
I723
aI967
aI968
aa(lp1401
I970
aI971
aI969
aa(lp1402
I969
aI971
aI972
aa(lp1403
I952
aI959
aI960
aa(lp1404
I960
aI959
aI973
aa(lp1405
I948
aI974
aI964
aa(lp1406
I964
aI974
aI965
aa(lp1407
I960
aI973
aI947
aa(lp1408
I947
aI973
aI975
aa(lp1409
I976
aI955
aI972
aa(lp1410
I972
aI955
aI977
aa(lp1411
I978
aI979
aI981
aa(lp1412
I981
aI979
aI980
aa(lp1413
I972
aI977
aI969
aa(lp1414
I969
aI977
aI982
aa(lp1415
I955
aI954
aI977
aa(lp1416
I977
aI954
aI983
aa(lp1417
I951
aI955
aI956
aa(lp1418
I956
aI955
aI976
aa(lp1419
I984
aI985
aI949
aa(lp1420
I949
aI985
aI946
aa(lp1421
I985
aI986
aI946
aa(lp1422
I946
aI986
aI961
aa(lp1423
I987
aI957
aI976
aa(lp1424
I976
aI957
aI956
aa(lp1425
I988
aI970
aI962
aa(lp1426
I962
aI970
aI969
aa(lp1427
I961
aI960
aI946
aa(lp1428
I946
aI960
aI947
aa(lp1429
I989
aI990
aI953
aa(lp1430
I953
aI990
aI950
aa(lp1431
I947
aI975
aI948
aa(lp1432
I948
aI975
aI974
aa(lp1433
I952
aI951
aI959
aa(lp1434
I959
aI951
aI956
aa(lp1435
I992
aI984
aI991
aa(lp1436
I991
aI984
aI949
aa(lp1437
I978
aI981
aI993
aa(lp1438
I993
aI981
aI983
aa(lp1439
I980
aI963
aI981
aa(lp1440
I981
aI963
aI982
aa(lp1441
I979
aI992
aI980
aa(lp1442
I980
aI992
aI991
aa(lp1443
I982
aI963
aI969
aa(lp1444
I969
aI963
aI962
aa(lp1445
I993
aI983
aI994
aa(lp1446
I994
aI983
aI954
aa(lp1447
I986
aI989
aI961
aa(lp1448
I961
aI989
aI953
aa(lp1449
I987
aI971
aI769
aa(lp1450
I769
aI971
aI630
aa(lp1451
I990
aI994
aI950
aa(lp1452
I950
aI994
aI954
aa(lp1453
I959
aI958
aI973
aa(lp1454
I973
aI958
aI968
aa(lp1455
I977
aI983
aI982
aa(lp1456
I982
aI983
aI981
aa(lp1457
I964
aI963
aI991
aa(lp1458
I991
aI963
aI980
aa(lp1459
I948
aI964
aI949
aa(lp1460
I949
aI964
aI991
aa(lp1461
I994
aI995
aI993
aa(lp1462
I993
aI995
aI996
aa(lp1463
I997
aI995
aI990
aa(lp1464
I990
aI995
aI994
aa(lp1465
I998
aI997
aI989
aa(lp1466
I989
aI997
aI990
aa(lp1467
I999
aI998
aI986
aa(lp1468
I986
aI998
aI989
aa(lp1469
I993
aI996
aI978
aa(lp1470
I978
aI996
aI1000
aa(lp1471
I978
aI1000
aI979
aa(lp1472
I979
aI1000
aI1001
aa(lp1473
I1001
aI1002
aI979
aa(lp1474
I979
aI1002
aI992
aa(lp1475
I1003
aI1000
aI1004
aa(lp1476
I1004
aI1000
aI996
aa(lp1477
I1006
aI1007
aI1005
aa(lp1478
I1005
aI1007
aI1008
aa(lp1479
I1007
aI1009
aI1008
aa(lp1480
I1008
aI1009
aI1010
aa(lp1481
I1007
aI1011
aI1009
aa(lp1482
I1009
aI1011
aI1012
aa(lp1483
I1013
aI1014
aI1011
aa(lp1484
I1011
aI1014
aI1015
aa(lp1485
I1015
aI1016
aI1011
aa(lp1486
I1011
aI1016
aI1012
aa(lp1487
I1013
aI1011
aI1006
aa(lp1488
I1006
aI1011
aI1007
aa(lp1489
I1005
aI1017
aI1006
aa(lp1490
I1006
aI1017
aI1018
aa(lp1491
I1019
aI1010
aI1012
aa(lp1492
I1012
aI1010
aI1009
aa(lp1493
I995
aI997
aI1019
aa(lp1494
I1019
aI997
aI1010
aa(lp1495
I1010
aI997
aI1020
aa(lp1496
I1020
aI997
aI998
aa(lp1497
I1008
aI1010
aI1021
aa(lp1498
I1021
aI1010
aI1020
aa(lp1499
I1005
aI1008
aI1022
aa(lp1500
I1022
aI1008
aI1021
aa(lp1501
I1012
aI1016
aI1019
aa(lp1502
I1019
aI1016
aI1004
aa(lp1503
I995
aI1019
aI996
aa(lp1504
I996
aI1019
aI1004
aa(lp1505
I1017
aI1005
aI1023
aa(lp1506
I1023
aI1005
aI1022
aa(lp1507
I1024
aI1025
aI1021
aa(lp1508
I1021
aI1025
aI1022
aa(lp1509
I1025
aI1026
aI1022
aa(lp1510
I1022
aI1026
aI1023
aa(lp1511
I1027
aI1028
aI1024
aa(lp1512
I1024
aI1028
aI1025
aa(lp1513
I1024
aI1029
aI1027
aa(lp1514
I1027
aI1029
aI1030
aa(lp1515
I1026
aI1025
aI1031
aa(lp1516
I1031
aI1025
aI1028
aa(lp1517
I1021
aI1020
aI1024
aa(lp1518
I1024
aI1020
aI1029
aa(lp1519
I999
aI1029
aI998
aa(lp1520
I998
aI1029
aI1020
aa(lp1521
I1023
aI1032
aI1017
aa(lp1522
I1017
aI1032
aI1033
aa(lp1523
I1017
aI1033
aI1018
aa(lp1524
I1018
aI1033
aI1034
aa(lp1525
I1004
aI1016
aI1035
aa(lp1526
I1035
aI1016
aI1015
aa(lp1527
I1014
aI1036
aI1015
aa(lp1528
I1015
aI1036
aI1035
aa(lp1529
I1037
aI1003
aI1035
aa(lp1530
I1035
aI1003
aI1004
aa(lp1531
I1036
aI1038
aI1035
aa(lp1532
I1035
aI1038
aI1037
aa(lp1533
I1036
aI1014
aI1040
aa(lp1534
I1040
aI1014
aI1039
aa(lp1535
I1034
aI1033
aI1039
aa(lp1536
I1039
aI1033
aI1040
aa(lp1537
I1041
aI999
aI985
aa(lp1538
I985
aI999
aI986
aa(lp1539
I1002
aI1042
aI992
aa(lp1540
I992
aI1042
aI984
aa(lp1541
I985
aI984
aI1041
aa(lp1542
I1041
aI984
aI1042
aa(lp1543
I1041
aI1042
aI1030
aa(lp1544
I1030
aI1042
aI1043
aa(lp1545
I1030
aI1043
aI1027
aa(lp1546
I1027
aI1043
aI1044
aa(lp1547
I1045
aI1043
aI1002
aa(lp1548
I1002
aI1043
aI1042
aa(lp1549
I1029
aI999
aI1030
aa(lp1550
I1030
aI999
aI1041
aa(lp1551
I1046
aI1045
aI1001
aa(lp1552
I1001
aI1045
aI1002
aa(lp1553
I1000
aI1003
aI1001
aa(lp1554
I1001
aI1003
aI1046
aa(lp1555
I1003
aI1037
aI1046
aa(lp1556
I1046
aI1037
aI1047
aa(lp1557
I1047
aI1048
aI1046
aa(lp1558
I1046
aI1048
aI1045
aa(lp1559
I1049
aI1050
aI1047
aa(lp1560
I1047
aI1050
aI1048
aa(lp1561
I1048
aI1044
aI1045
aa(lp1562
I1045
aI1044
aI1043
aa(lp1563
I1044
aI1048
aI1051
aa(lp1564
I1051
aI1048
aI1050
aa(lp1565
I1038
aI1049
aI1037
aa(lp1566
I1037
aI1049
aI1047
aa(lp1567
I1049
aI1038
aI1052
aa(lp1568
I1052
aI1038
aI1053
aa(lp1569
I1055
aI1056
aI1054
aa(lp1570
I1054
aI1056
aI1052
aa(lp1571
I1050
aI1049
aI1056
aa(lp1572
I1056
aI1049
aI1052
aa(lp1573
I1052
aI1053
aI1054
aa(lp1574
I1054
aI1053
aI1032
aa(lp1575
I1033
aI1032
aI1040
aa(lp1576
I1040
aI1032
aI1053
aa(lp1577
I1038
aI1036
aI1053
aa(lp1578
I1053
aI1036
aI1040
aa(lp1579
I1051
aI1028
aI1044
aa(lp1580
I1044
aI1028
aI1027
aa(lp1581
I1055
aI1031
aI1051
aa(lp1582
I1051
aI1031
aI1028
aa(lp1583
I1055
aI1051
aI1056
aa(lp1584
I1056
aI1051
aI1050
aa(lp1585
I1026
aI1031
aI1054
aa(lp1586
I1054
aI1031
aI1055
aa(lp1587
I1032
aI1023
aI1054
aa(lp1588
I1054
aI1023
aI1026
aa(lp1589
I1034
aI1013
aI1018
aa(lp1590
I1018
aI1013
aI1006
aa(lp1591
I1014
aI1013
aI1039
aa(lp1592
I1039
aI1013
aI1034
aa(lp1593
I768
aI771
aI957
aa(lp1594
I957
aI771
aI958
aa(lp1595
I962
aI965
aI988
aa(lp1596
I988
aI965
aI1057
aa(lp1597
I975
aI967
aI974
aa(lp1598
I974
aI967
aI966
aa(lp1599
I973
aI968
aI975
aa(lp1600
I975
aI968
aI967
aa(lp1601
I631
aI630
aI970
aa(lp1602
I970
aI630
aI971
aa(lp1603
I1057
aI965
aI966
aa(lp1604
I966
aI965
aI974
aa(lp1605
I769
aI768
aI987
aa(lp1606
I987
aI768
aI957
aa(lp1607
I667
aI631
aI988
aa(lp1608
I988
aI631
aI970
aa(lp1609
I976
aI972
aI987
aa(lp1610
I987
aI972
aI971
aa(lp1611
I723
aI968
aI771
aa(lp1612
I771
aI968
aI958
aa(lp1613
I1059
aI1060
aI1058
aa(lp1614
I1058
aI1060
aI1061
aa(lp1615
I1063
aI1064
aI1062
aa(lp1616
I1062
aI1064
aI1065
aa(lp1617
I1067
aI1063
aI1066
aa(lp1618
I1066
aI1063
aI1062
aa(lp1619
I1069
aI1070
aI1068
aa(lp1620
I1068
aI1070
aI1071
aa(lp1621
I1072
aI1073
aI1075
aa(lp1622
I1075
aI1073
aI1074
aa(lp1623
I1064
aI1076
aI1065
aa(lp1624
I1065
aI1076
aI1077
aa(lp1625
I1078
aI1079
aI1081
aa(lp1626
I1081
aI1079
aI1080
aa(lp1627
I1082
aI1083
aI1085
aa(lp1628
I1085
aI1083
aI1084
aa(lp1629
I1085
aI1084
aI666
aa(lp1630
I666
aI1084
aI1086
aa(lp1631
I1087
aI1088
aI1090
aa(lp1632
I1090
aI1088
aI1089
aa(lp1633
I1076
aI1064
aI1091
aa(lp1634
I1091
aI1064
aI1071
aa(lp1635
I1075
aI1074
aI1082
aa(lp1636
I1082
aI1074
aI1083
aa(lp1637
I1060
aI1092
aI1080
aa(lp1638
I1080
aI1092
aI1081
aa(lp1639
I1076
aI1091
aI1059
aa(lp1640
I1059
aI1091
aI1093
aa(lp1641
I1067
aI1095
aI1094
aa(lp1642
I1094
aI1095
aI1090
aa(lp1643
I1097
aI1098
aI1096
aa(lp1644
I1096
aI1098
aI1099
aa(lp1645
I1095
aI1100
aI1090
aa(lp1646
I1090
aI1100
aI1087
aa(lp1647
I1067
aI1066
aI1095
aa(lp1648
I1095
aI1066
aI1101
aa(lp1649
I1063
aI1067
aI1068
aa(lp1650
I1068
aI1067
aI1094
aa(lp1651
I1102
aI1103
aI1061
aa(lp1652
I1061
aI1103
aI1058
aa(lp1653
I1103
aI1104
aI1058
aa(lp1654
I1058
aI1104
aI1077
aa(lp1655
I1105
aI1069
aI1094
aa(lp1656
I1094
aI1069
aI1068
aa(lp1657
I1078
aI1073
aI1087
aa(lp1658
I1087
aI1073
aI1088
aa(lp1659
I1076
aI1059
aI1077
aa(lp1660
I1077
aI1059
aI1058
aa(lp1661
I1106
aI1107
aI1065
aa(lp1662
I1065
aI1107
aI1062
aa(lp1663
I1059
aI1093
aI1060
aa(lp1664
I1060
aI1093
aI1092
aa(lp1665
I1064
aI1063
aI1071
aa(lp1666
I1071
aI1063
aI1068
aa(lp1667
I1109
aI1102
aI1108
aa(lp1668
I1108
aI1102
aI1061
aa(lp1669
I1096
aI1099
aI1110
aa(lp1670
I1110
aI1099
aI1101
aa(lp1671
I1098
aI1079
aI1099
aa(lp1672
I1099
aI1079
aI1100
aa(lp1673
I1097
aI1109
aI1098
aa(lp1674
I1098
aI1109
aI1108
aa(lp1675
I1087
aI1100
aI1078
aa(lp1676
I1078
aI1100
aI1079
aa(lp1677
I1110
aI1101
aI1111
aa(lp1678
I1111
aI1101
aI1066
aa(lp1679
I1104
aI1106
aI1077
aa(lp1680
I1077
aI1106
aI1065
aa(lp1681
I1089
aI671
aI1105
aa(lp1682
I1105
aI671
aI670
aa(lp1683
I1107
aI1111
aI1062
aa(lp1684
I1062
aI1111
aI1066
aa(lp1685
I1071
aI1070
aI1091
aa(lp1686
I1091
aI1070
aI1086
aa(lp1687
I1095
aI1101
aI1100
aa(lp1688
I1100
aI1101
aI1099
aa(lp1689
I1108
aI1080
aI1098
aa(lp1690
I1098
aI1080
aI1079
aa(lp1691
I1061
aI1060
aI1108
aa(lp1692
I1108
aI1060
aI1080
aa(lp1693
I1111
aI1112
aI1110
aa(lp1694
I1110
aI1112
aI1113
aa(lp1695
I1114
aI1112
aI1107
aa(lp1696
I1107
aI1112
aI1111
aa(lp1697
I1115
aI1114
aI1106
aa(lp1698
I1106
aI1114
aI1107
aa(lp1699
I1116
aI1115
aI1104
aa(lp1700
I1104
aI1115
aI1106
aa(lp1701
I1110
aI1113
aI1096
aa(lp1702
I1096
aI1113
aI1117
aa(lp1703
I1096
aI1117
aI1097
aa(lp1704
I1097
aI1117
aI1118
aa(lp1705
I1118
aI1119
aI1097
aa(lp1706
I1097
aI1119
aI1109
aa(lp1707
I1117
aI1113
aI1120
aa(lp1708
I1120
aI1113
aI1121
aa(lp1709
I1122
aI1123
aI1125
aa(lp1710
I1125
aI1123
aI1124
aa(lp1711
I1124
aI1126
aI1125
aa(lp1712
I1125
aI1126
aI1127
aa(lp1713
I1124
aI1128
aI1126
aa(lp1714
I1126
aI1128
aI1129
aa(lp1715
I1128
aI1130
aI1132
aa(lp1716
I1132
aI1130
aI1131
aa(lp1717
I1132
aI1133
aI1128
aa(lp1718
I1128
aI1133
aI1129
aa(lp1719
I1130
aI1128
aI1123
aa(lp1720
I1123
aI1128
aI1124
aa(lp1721
I1123
aI1122
aI1135
aa(lp1722
I1135
aI1122
aI1134
aa(lp1723
I1136
aI1127
aI1129
aa(lp1724
I1129
aI1127
aI1126
aa(lp1725
I1112
aI1114
aI1136
aa(lp1726
I1136
aI1114
aI1127
aa(lp1727
I1127
aI1114
aI1137
aa(lp1728
I1137
aI1114
aI1115
aa(lp1729
I1127
aI1137
aI1125
aa(lp1730
I1125
aI1137
aI1138
aa(lp1731
I1139
aI1122
aI1138
aa(lp1732
I1138
aI1122
aI1125
aa(lp1733
I1129
aI1133
aI1136
aa(lp1734
I1136
aI1133
aI1121
aa(lp1735
I1112
aI1136
aI1113
aa(lp1736
I1113
aI1136
aI1121
aa(lp1737
I1122
aI1139
aI1134
aa(lp1738
I1134
aI1139
aI1140
aa(lp1739
I1141
aI1142
aI1138
aa(lp1740
I1138
aI1142
aI1139
aa(lp1741
I1142
aI1143
aI1139
aa(lp1742
I1139
aI1143
aI1140
aa(lp1743
I1144
aI1145
aI1141
aa(lp1744
I1141
aI1145
aI1142
aa(lp1745
I1141
aI1146
aI1144
aa(lp1746
I1144
aI1146
aI1147
aa(lp1747
I1143
aI1142
aI1148
aa(lp1748
I1148
aI1142
aI1145
aa(lp1749
I1138
aI1137
aI1141
aa(lp1750
I1141
aI1137
aI1146
aa(lp1751
I1116
aI1146
aI1115
aa(lp1752
I1115
aI1146
aI1137
aa(lp1753
I1149
aI1150
aI1140
aa(lp1754
I1140
aI1150
aI1134
aa(lp1755
I1134
aI1150
aI1135
aa(lp1756
I1135
aI1150
aI1151
aa(lp1757
I1121
aI1133
aI1152
aa(lp1758
I1152
aI1133
aI1132
aa(lp1759
I1153
aI1152
aI1131
aa(lp1760
I1131
aI1152
aI1132
aa(lp1761
I1152
aI1154
aI1121
aa(lp1762
I1121
aI1154
aI1120
aa(lp1763
I1153
aI1155
aI1152
aa(lp1764
I1152
aI1155
aI1154
aa(lp1765
I1131
aI1156
aI1153
aa(lp1766
I1153
aI1156
aI1157
aa(lp1767
I1151
aI1150
aI1156
aa(lp1768
I1156
aI1150
aI1157
aa(lp1769
I1158
aI1116
aI1103
aa(lp1770
I1103
aI1116
aI1104
aa(lp1771
I1119
aI1159
aI1109
aa(lp1772
I1109
aI1159
aI1102
aa(lp1773
I1158
aI1103
aI1159
aa(lp1774
I1159
aI1103
aI1102
aa(lp1775
I1159
aI1160
aI1158
aa(lp1776
I1158
aI1160
aI1147
aa(lp1777
I1160
aI1161
aI1147
aa(lp1778
I1147
aI1161
aI1144
aa(lp1779
I1162
aI1160
aI1119
aa(lp1780
I1119
aI1160
aI1159
aa(lp1781
I1146
aI1116
aI1147
aa(lp1782
I1147
aI1116
aI1158
aa(lp1783
I1163
aI1162
aI1118
aa(lp1784
I1118
aI1162
aI1119
aa(lp1785
I1118
aI1117
aI1163
aa(lp1786
I1163
aI1117
aI1120
aa(lp1787
I1163
aI1120
aI1164
aa(lp1788
I1164
aI1120
aI1154
aa(lp1789
I1164
aI1165
aI1163
aa(lp1790
I1163
aI1165
aI1162
aa(lp1791
I1166
aI1167
aI1164
aa(lp1792
I1164
aI1167
aI1165
aa(lp1793
I1165
aI1161
aI1162
aa(lp1794
I1162
aI1161
aI1160
aa(lp1795
I1161
aI1165
aI1168
aa(lp1796
I1168
aI1165
aI1167
aa(lp1797
I1155
aI1166
aI1154
aa(lp1798
I1154
aI1166
aI1164
aa(lp1799
I1166
aI1155
aI1169
aa(lp1800
I1169
aI1155
aI1170
aa(lp1801
I1172
aI1173
aI1171
aa(lp1802
I1171
aI1173
aI1169
aa(lp1803
I1167
aI1166
aI1173
aa(lp1804
I1173
aI1166
aI1169
aa(lp1805
I1169
aI1170
aI1171
aa(lp1806
I1171
aI1170
aI1149
aa(lp1807
I1150
aI1149
aI1157
aa(lp1808
I1157
aI1149
aI1170
aa(lp1809
I1155
aI1153
aI1170
aa(lp1810
I1170
aI1153
aI1157
aa(lp1811
I1161
aI1168
aI1144
aa(lp1812
I1144
aI1168
aI1145
aa(lp1813
I1172
aI1148
aI1168
aa(lp1814
I1168
aI1148
aI1145
aa(lp1815
I1172
aI1168
aI1173
aa(lp1816
I1173
aI1168
aI1167
aa(lp1817
I1171
aI1143
aI1172
aa(lp1818
I1172
aI1143
aI1148
aa(lp1819
I1149
aI1140
aI1171
aa(lp1820
I1171
aI1140
aI1143
aa(lp1821
I1151
aI1130
aI1135
aa(lp1822
I1135
aI1130
aI1123
aa(lp1823
I1131
aI1130
aI1156
aa(lp1824
I1156
aI1130
aI1151
aa(lp1825
I767
aI632
aI1069
aa(lp1826
I1069
aI632
aI1070
aa(lp1827
I1073
aI1078
aI1074
aa(lp1828
I1074
aI1078
aI1081
aa(lp1829
I1092
aI1093
aI1083
aa(lp1830
I1083
aI1093
aI1084
aa(lp1831
I1091
aI1086
aI1093
aa(lp1832
I1093
aI1086
aI1084
aa(lp1833
I1073
aI1072
aI1088
aa(lp1834
I1088
aI1072
aI1174
aa(lp1835
I1074
aI1081
aI1083
aa(lp1836
I1083
aI1081
aI1092
aa(lp1837
I670
aI767
aI1105
aa(lp1838
I1105
aI767
aI1069
aa(lp1839
I1105
aI1094
aI1089
aa(lp1840
I1089
aI1094
aI1090
aa(lp1841
I666
aI1086
aI632
aa(lp1842
I632
aI1086
aI1070
aa(lp1843
I1176
aI486
aI1175
aa(lp1844
I1175
aI486
aI562
aa(lp1845
I743
aI1177
aI592
aa(lp1846
I592
aI1177
aI1178
aa(lp1847
I592
aI1178
aI593
aa(lp1848
I593
aI1178
aI1179
aa(lp1849
I1180
aI1181
aI726
aa(lp1850
I726
aI1181
aI730
aa(lp1851
I487
aI1182
aI743
aa(lp1852
I743
aI1182
aI1177
aa(lp1853
I1175
aI562
aI1183
aa(lp1854
I1183
aI562
aI765
aa(lp1855
I486
aI1176
aI487
aa(lp1856
I487
aI1176
aI1182
aa(lp1857
I1184
aI1183
aI727
aa(lp1858
I727
aI1183
aI765
aa(lp1859
I1179
aI1180
aI593
aa(lp1860
I593
aI1180
aI726
aa(lp1861
I1181
aI1184
aI730
aa(lp1862
I730
aI1184
aI727
aa(lp1863
I1185
aI1186
aI1184
aa(lp1864
I1184
aI1186
aI1183
aa(lp1865
I1187
aI1185
aI1181
aa(lp1866
I1181
aI1185
aI1184
aa(lp1867
I1188
aI1187
aI1180
aa(lp1868
I1180
aI1187
aI1181
aa(lp1869
I1189
aI1188
aI1179
aa(lp1870
I1179
aI1188
aI1180
aa(lp1871
I1183
aI1186
aI1175
aa(lp1872
I1175
aI1186
aI1190
aa(lp1873
I1175
aI1190
aI1176
aa(lp1874
I1176
aI1190
aI1191
aa(lp1875
I1192
aI1182
aI1191
aa(lp1876
I1191
aI1182
aI1176
aa(lp1877
I1190
aI1186
aI1193
aa(lp1878
I1193
aI1186
aI1194
aa(lp1879
I1196
aI1197
aI1195
aa(lp1880
I1195
aI1197
aI1198
aa(lp1881
I1197
aI1199
aI1198
aa(lp1882
I1198
aI1199
aI1200
aa(lp1883
I1197
aI1201
aI1199
aa(lp1884
I1199
aI1201
aI1202
aa(lp1885
I1203
aI1204
aI1201
aa(lp1886
I1201
aI1204
aI1202
aa(lp1887
I1205
aI1201
aI1196
aa(lp1888
I1196
aI1201
aI1197
aa(lp1889
I1207
aI1205
aI1206
aa(lp1890
I1206
aI1205
aI1196
aa(lp1891
I1195
aI1208
aI1196
aa(lp1892
I1196
aI1208
aI1206
aa(lp1893
I1202
aI1209
aI1199
aa(lp1894
I1199
aI1209
aI1200
aa(lp1895
I1185
aI1187
aI1209
aa(lp1896
I1209
aI1187
aI1200
aa(lp1897
I1200
aI1187
aI1210
aa(lp1898
I1210
aI1187
aI1188
aa(lp1899
I1198
aI1200
aI1211
aa(lp1900
I1211
aI1200
aI1210
aa(lp1901
I1195
aI1198
aI1212
aa(lp1902
I1212
aI1198
aI1211
aa(lp1903
I1202
aI1204
aI1209
aa(lp1904
I1209
aI1204
aI1194
aa(lp1905
I1185
aI1209
aI1186
aa(lp1906
I1186
aI1209
aI1194
aa(lp1907
I1208
aI1195
aI1213
aa(lp1908
I1213
aI1195
aI1212
aa(lp1909
I1214
aI1215
aI1211
aa(lp1910
I1211
aI1215
aI1212
aa(lp1911
I1215
aI1216
aI1212
aa(lp1912
I1212
aI1216
aI1213
aa(lp1913
I1217
aI1218
aI1214
aa(lp1914
I1214
aI1218
aI1215
aa(lp1915
I1214
aI1219
aI1217
aa(lp1916
I1217
aI1219
aI1220
aa(lp1917
I1216
aI1215
aI1221
aa(lp1918
I1221
aI1215
aI1218
aa(lp1919
I1211
aI1210
aI1214
aa(lp1920
I1214
aI1210
aI1219
aa(lp1921
I1189
aI1219
aI1188
aa(lp1922
I1188
aI1219
aI1210
aa(lp1923
I1213
aI1222
aI1208
aa(lp1924
I1208
aI1222
aI1223
aa(lp1925
I1208
aI1223
aI1206
aa(lp1926
I1206
aI1223
aI1207
aa(lp1927
I1194
aI1204
aI1224
aa(lp1928
I1224
aI1204
aI1203
aa(lp1929
I1225
aI1226
aI1203
aa(lp1930
I1203
aI1226
aI1224
aa(lp1931
I1224
aI1227
aI1194
aa(lp1932
I1194
aI1227
aI1193
aa(lp1933
I1226
aI1228
aI1224
aa(lp1934
I1224
aI1228
aI1227
aa(lp1935
I1226
aI1225
aI1230
aa(lp1936
I1230
aI1225
aI1229
aa(lp1937
I1207
aI1223
aI1229
aa(lp1938
I1229
aI1223
aI1230
aa(lp1939
I1203
aI1201
aI1225
aa(lp1940
I1225
aI1201
aI1205
aa(lp1941
I1225
aI1205
aI1229
aa(lp1942
I1229
aI1205
aI1207
aa(lp1943
I1178
aI1231
aI1179
aa(lp1944
I1179
aI1231
aI1189
aa(lp1945
I1182
aI1192
aI1177
aa(lp1946
I1177
aI1192
aI1232
aa(lp1947
I1231
aI1178
aI1232
aa(lp1948
I1232
aI1178
aI1177
aa(lp1949
I1232
aI1233
aI1231
aa(lp1950
I1231
aI1233
aI1220
aa(lp1951
I1233
aI1234
aI1220
aa(lp1952
I1220
aI1234
aI1217
aa(lp1953
I1235
aI1233
aI1192
aa(lp1954
I1192
aI1233
aI1232
aa(lp1955
I1219
aI1189
aI1220
aa(lp1956
I1220
aI1189
aI1231
aa(lp1957
I1236
aI1235
aI1191
aa(lp1958
I1191
aI1235
aI1192
aa(lp1959
I1191
aI1190
aI1236
aa(lp1960
I1236
aI1190
aI1193
aa(lp1961
I1236
aI1193
aI1237
aa(lp1962
I1237
aI1193
aI1227
aa(lp1963
I1237
aI1238
aI1236
aa(lp1964
I1236
aI1238
aI1235
aa(lp1965
I1239
aI1240
aI1237
aa(lp1966
I1237
aI1240
aI1238
aa(lp1967
I1238
aI1234
aI1235
aa(lp1968
I1235
aI1234
aI1233
aa(lp1969
I1234
aI1238
aI1241
aa(lp1970
I1241
aI1238
aI1240
aa(lp1971
I1228
aI1239
aI1227
aa(lp1972
I1227
aI1239
aI1237
aa(lp1973
I1239
aI1228
aI1242
aa(lp1974
I1242
aI1228
aI1243
aa(lp1975
I1244
aI1245
aI1242
aa(lp1976
I1242
aI1245
aI1246
aa(lp1977
I1240
aI1239
aI1246
aa(lp1978
I1246
aI1239
aI1242
aa(lp1979
I1242
aI1243
aI1244
aa(lp1980
I1244
aI1243
aI1222
aa(lp1981
I1223
aI1222
aI1230
aa(lp1982
I1230
aI1222
aI1243
aa(lp1983
I1228
aI1226
aI1243
aa(lp1984
I1243
aI1226
aI1230
aa(lp1985
I1234
aI1241
aI1217
aa(lp1986
I1217
aI1241
aI1218
aa(lp1987
I1245
aI1221
aI1241
aa(lp1988
I1241
aI1221
aI1218
aa(lp1989
I1245
aI1241
aI1246
aa(lp1990
I1246
aI1241
aI1240
aa(lp1991
I1244
aI1216
aI1245
aa(lp1992
I1245
aI1216
aI1221
aa(lp1993
I1222
aI1213
aI1244
aa(lp1994
I1244
aI1213
aI1216
aa(lp1995
I677
aI688
aI676
aa(lp1996
I676
aI688
aI690
aa(lp1997
I677
aI678
aI688
aa(lp1998
I688
aI678
aI661
aa(lp1999
I988
aI1057
aI667
aa(lp2000
I667
aI1057
aI668
aa(lp2001
I535
aI766
aI532
aa(lp2002
I532
aI766
aI748
aa(lp2003
I650
aI675
aI770
aa(lp2004
I770
aI675
aI754
aa(lp2005
I539
aI651
aI670
aa(lp2006
I670
aI651
aI767
aa(lp2007
I668
aI1057
aI609
aa(lp2008
I609
aI1057
aI966
aa(lp2009
I609
aI608
aI668
aa(lp2010
I668
aI608
aI665
aa(lp2011
I530
aI752
aI531
aa(lp2012
I531
aI752
aI614
aa(lp2013
I559
aI755
aI560
aa(lp2014
I560
aI755
aI1247
aa(lp2015
I1247
aI755
aI1075
aa(lp2016
I1075
aI755
aI1072
aa(lp2017
I1082
aI1248
aI1075
aa(lp2018
I1075
aI1248
aI1247
aa(lp2019
I1248
aI1249
aI1247
aa(lp2020
I1247
aI1249
aI560
aa(lp2021
I1249
aI1250
aI560
aa(lp2022
I560
aI1250
aI561
aa(lp2023
I561
aI1251
aI558
aa(lp2024
I558
aI1251
aI620
aa(lp2025
I1250
aI554
aI561
aa(lp2026
I561
aI554
aI1251
aa(lp2027
I554
aI1250
aI555
aa(lp2028
I555
aI1250
aI1252
aa(lp2029
I1250
aI1249
aI1252
aa(lp2030
I1252
aI1249
aI1253
aa(lp2031
I1249
aI1248
aI1253
aa(lp2032
I1253
aI1248
aI1254
aa(lp2033
I666
aI665
aI1085
aa(lp2034
I1085
aI665
aI1254
aa(lp2035
I529
aI528
aI1255
aa(lp2036
I1255
aI528
aI657
aa(lp2037
I620
aI1251
aI557
aa(lp2038
I557
aI1251
aI554
aa(lp2039
I770
aI629
aI650
aa(lp2040
I650
aI629
aI651
aa(lp2041
I608
aI752
aI665
aa(lp2042
I665
aI752
aI1254
aa(lp2043
I1082
aI1085
aI1248
aa(lp2044
I1248
aI1085
aI1254
aa(lp2045
I671
aI1089
aI1174
aa(lp2046
I1174
aI1089
aI1088
aa(lp2047
I1072
aI755
aI1174
aa(lp2048
I1174
aI755
aI671
aa(lp2049
I530
aI1253
aI752
aa(lp2050
I752
aI1253
aI1254
aa(lp2051
I1253
aI530
aI1252
aa(lp2052
I1252
aI530
aI529
aa(lp2053
I529
aI1255
aI1252
aa(lp2054
I1252
aI1255
aI555
aa(lp2055
I1255
aI657
aI555
aa(lp2056
I555
aI657
aI556
aa(lp2057
I657
aI715
aI556
aa(lp2058
I556
aI715
aI716
aa(lp2059
I598
aI732
aI490
aa(lp2060
I518
aI458
aI552
aa(lp2061
I552
aI458
aI483
aa(lp2062
I458
aI461
aI483
aa(lp2063
I483
aI461
aI484
aa(lp2064
I571
aI573
aI741
aa(lp2065
I741
aI573
aI742
aa(lp2066
I552
aI526
aI518
aa(lp2067
I518
aI526
aI523
aa(lp2068
I522
aI519
aI523
aa(lp2069
I523
aI519
aI518
aa(lp2070
I594
aI469
aI522
aa(lp2071
I522
aI469
aI519
aa(lp2072
I471
aI470
aI594
aa(lp2073
I594
aI470
aI469
aa(lp2074
I743
aI468
aI487
aa(lp2075
I487
aI468
aI488
aa(lp2076
I473
aI488
aI470
aa(lp2077
I470
aI488
aI468
aa(lp2078
I702
aI489
aI473
aa(lp2079
I473
aI489
aI488
aa(lp2080
I701
aI563
aI702
aa(lp2081
I702
aI563
aI489
aa(lp2082
I701
aI708
aI563
aa(lp2083
I563
aI708
aI764
aa(lp2084
I708
aI546
aI764
aa(lp2085
I764
aI546
aI728
aa(lp2086
I546
aI501
aI728
aa(lp2087
I728
aI501
aI729
aa(lp2088
I464
aI725
aI501
aa(lp2089
I501
aI725
aI729
aa(lp2090
I592
aI591
aI743
aa(lp2091
I743
aI591
aI744
aa(lp2092
I572
aI460
aI713
aa(lp2093
I713
aI460
aI467
aa(lp2094
I571
aI461
aI572
aa(lp2095
I572
aI461
aI460
aa(lp2096
I741
aI484
aI571
aa(lp2097
I571
aI484
aI461
aa(lp2098
I568
aI485
aI741
aa(lp2099
I741
aI485
aI484
aa(lp2100
I567
aI762
aI568
aa(lp2101
I568
aI762
aI485
aa(lp2102
I731
aI714
aI567
aa(lp2103
I567
aI714
aI762
aa(lp2104
I732
aI715
aI731
aa(lp2105
I731
aI715
aI714
aa(lp2106
I598
aI716
aI732
aa(lp2107
I732
aI716
aI715
aa(lp2108
I597
aI717
aI598
aa(lp2109
I598
aI717
aI716
aa(lp2110
I498
aI494
aI573
aa(lp2111
I573
aI494
aI742
aa(lp2112
I498
aI500
aI494
aa(lp2113
I494
aI500
aI495
aa(lp2114
I500
aI548
aI495
aa(lp2115
I495
aI548
aI549
aa(lp2116
I548
aI704
aI549
aa(lp2117
I549
aI704
aI706
aa(lp2118
I704
aI660
aI706
aa(lp2119
I706
aI660
aI659
aa(lp2120
I597
aI761
aI717
aa(lp2121
I717
aI761
aI734
aa(lp2122
I761
aI512
aI734
aa(lp2123
I734
aI512
aI733
aa(lp2124
I653
aI621
aI669
aa(lp2125
I669
aI621
aI733
aa(lp2126
I649
aI669
aI672
aa(lp2127
I672
aI669
aI513
aa(lp2128
I512
aI513
aI733
aa(lp2129
I733
aI513
aI669
aa(lp2130
I672
aI513
aI542
aa(lp2131
I542
aI513
aI511
aa(lp2132
I537
aI584
aI510
aa(lp2133
I510
aI584
aI543
aa(lp2134
I584
aI684
aI543
aa(lp2135
I543
aI684
aI680
aa(lp2136
I684
aI686
aI680
aa(lp2137
I680
aI686
aI679
aa(lp2138
I686
aI756
aI679
aa(lp2139
I679
aI756
aI662
aa(lp2140
I659
aI662
aI711
aa(lp2141
I711
aI662
aI756
aa(lp2142
I463
aI590
aI464
aa(lp2143
I464
aI590
aI725
aa(lp2144
I713
aI591
aI463
aa(lp2145
I463
aI591
aI590
aa(lp2146
I467
aI744
aI713
aa(lp2147
I713
aI744
aI591
aa(lp2148
I467
aI466
aI744
aa(lp2149
I744
aI466
aI468
aa(lp2150
I1256
aI1257
aI1
aa(lp2151
I1
aI1257
aI2
aa(lp2152
I97
aI1256
aI35
aa(lp2153
I35
aI1256
aI1
aa(lp2154
I39
aI106
aI41
aa(lp2155
I41
aI106
aI42
aa(lp2156
I97
aI35
aI98
aa(lp2157
I98
aI35
aI57
aa(lp2158
I98
aI57
aI1258
aa(lp2159
I1258
aI57
aI59
aa(lp2160
I1259
aI71
aI132
aa(lp2161
I132
aI71
aI70
aa(lp2162
I76
aI327
aI73
aa(lp2163
I73
aI327
aI74
aa(lp2164
I72
aI36
aI73
aa(lp2165
I73
aI36
aI77
aa(lp2166
I36
aI39
aI77
aa(lp2167
I77
aI39
aI41
aa(lp2168
I44
aI81
aI45
aa(lp2169
I45
aI81
aI80
aa(lp2170
I385
aI131
aI85
aa(lp2171
I85
aI131
aI86
aa(lp2172
I101
aI104
aI88
aa(lp2173
I88
aI104
aI89
aa(lp2174
I1257
aI101
aI2
aa(lp2175
I2
aI101
aI88
aa(lp2176
I1259
aI1258
aI71
aa(lp2177
I71
aI1258
aI59
aa(lp2178
I83
aI86
aI69
aa(lp2179
I69
aI86
aI70
aa(lp2180
I327
aI90
aI74
aa(lp2181
I74
aI90
aI89
aa(lp2182
I79
aI43
aI80
aa(lp2183
I80
aI43
aI42
aa(lp2184
I84
aI82
aI85
aa(lp2185
I85
aI82
aI81
aa(lp2186
I72
aI75
aI27
aa(lp2187
I27
aI75
aI28
aa(lp2188
I51
aI33
aI37
aa(lp2189
I37
aI33
aI38
aa(lp2190
I111
aI47
aI112
aa(lp2191
I112
aI47
aI46
aa(lp2192
I91
aI61
aI99
aa(lp2193
I99
aI61
aI100
aa(lp2194
I126
aI133
aI102
aa(lp2195
I102
aI133
aI103
aa(lp2196
I33
aI32
aI38
aa(lp2197
I38
aI32
aI105
aa(lp2198
I1257
aI1256
aI109
aa(lp2199
I109
aI1256
aI110
aa(lp2200
I1258
aI1259
aI124
aa(lp2201
I124
aI1259
aI125
aa(lp2202
I26
aI51
aI27
aa(lp2203
I27
aI51
aI37
aa(lp2204
I1256
aI97
aI110
aa(lp2205
I110
aI97
aI100
aa(lp2206
I101
aI1257
aI102
aa(lp2207
I102
aI1257
aI109
aa(lp2208
I98
aI1258
aI99
aa(lp2209
I99
aI1258
aI124
aa(lp2210
I133
aI29
aI103
aa(lp2211
I103
aI29
aI28
aa(lp2212
I45
aI106
aI46
aa(lp2213
I46
aI106
aI105
aa(lp2214
I285
aI333
aI163
aa(lp2215
I163
aI333
aI164
aa(lp2216
I342
aI207
aI166
aa(lp2217
I166
aI207
aI167
aa(lp2218
I318
aI183
aI197
aa(lp2219
I197
aI183
aI198
aa(lp2220
I314
aI219
aI200
aa(lp2221
I200
aI219
aI201
aa(lp2222
I193
aI196
aI214
aa(lp2223
I214
aI196
aI215
aa(lp2224
I213
aI292
aI214
aa(lp2225
I214
aI292
aI388
aa(lp2226
I292
aI291
aI388
aa(lp2227
I388
aI291
aI389
aa(lp2228
I291
aI342
aI389
aa(lp2229
I389
aI342
aI166
aa(lp2230
I187
aI158
aI391
aa(lp2231
I391
aI158
aI167
aa(lp2232
I205
aI204
aI391
aa(lp2233
I391
aI204
aI392
aa(lp2234
I204
aI285
aI392
aa(lp2235
I392
aI285
aI163
aa(lp2236
I333
aI334
aI164
aa(lp2237
I164
aI334
aI393
aa(lp2238
I334
aI154
aI393
aa(lp2239
I393
aI154
aI198
aa(lp2240
I157
aI314
aI197
aa(lp2241
I197
aI314
aI200
aa(lp2242
I1260
aI202
aI394
aa(lp2243
I394
aI202
aI201
aa(lp2244
I196
aI1260
aI215
aa(lp2245
I215
aI1260
aI394
aa(lp2246
I199
aI202
aI151
aa(lp2247
I151
aI202
aI152
aa(lp2248
I136
aI139
aI159
aa(lp2249
I159
aI139
aI160
aa(lp2250
I162
aI165
aI169
aa(lp2251
I169
aI165
aI170
aa(lp2252
I142
aI145
aI184
aa(lp2253
I184
aI145
aI185
aa(lp2254
I145
aI171
aI185
aa(lp2255
I185
aI171
aI170
aa(lp2256
I140
aI136
aI188
aa(lp2257
I188
aI136
aI159
aa(lp2258
I320
aI390
aI190
aa(lp2259
I190
aI390
aI191
aa(lp2260
I275
aI278
aI194
aa(lp2261
I194
aI278
aI195
aa(lp2262
I187
aI332
aI188
aa(lp2263
I188
aI332
aI281
aa(lp2264
I1260
aI196
aI312
aa(lp2265
I312
aI196
aI195
aa(lp2266
I316
aI142
aI319
aa(lp2267
I319
aI142
aI184
aa(lp2268
I189
aI275
aI190
aa(lp2269
I190
aI275
aI194
aa(lp2270
I390
aI161
aI191
aa(lp2271
I191
aI161
aI160
aa(lp2272
I168
aI282
aI169
aa(lp2273
I169
aI282
aI281
aa(lp2274
I202
aI1260
aI152
aa(lp2275
I152
aI1260
aI312
aa(lp2276
I150
aI316
aI151
aa(lp2277
I151
aI316
aI319
aa(lp2278
I425
aI331
aI137
aa(lp2279
I137
aI331
aI138
aa(lp2280
I283
aI425
aI141
aa(lp2281
I141
aI425
aI137
aa(lp2282
I430
aI178
aI143
aa(lp2283
I143
aI178
aI144
aa(lp2284
I282
aI168
aI147
aa(lp2285
I147
aI168
aI148
aa(lp2286
I150
aI153
aI173
aa(lp2287
I173
aI153
aI174
aa(lp2288
I171
aI145
aI177
aa(lp2289
I177
aI145
aI144
aa(lp2290
I189
aI192
aI180
aa(lp2291
I180
aI192
aI181
aa(lp2292
I457
aI453
aI276
aa(lp2293
I276
aI453
aI277
aa(lp2294
I153
aI311
aI174
aa(lp2295
I174
aI311
aI279
aa(lp2296
I140
aI282
aI141
aa(lp2297
I141
aI282
aI147
aa(lp2298
I340
aI430
aI317
aa(lp2299
I317
aI430
aI143
aa(lp2300
I179
aI457
aI180
aa(lp2301
I180
aI457
aI276
aa(lp2302
I192
aI139
aI181
aa(lp2303
I181
aI139
aI138
aa(lp2304
I453
aI280
aI277
aa(lp2305
I277
aI280
aI279
aa(lp2306
I176
aI149
aI177
aa(lp2307
I177
aI149
aI148
aa(lp2308
I316
aI150
aI317
aa(lp2309
I317
aI150
aI173
aa(lp2310
I1261
aI395
aI423
aa(lp2311
I423
aI395
aI424
aa(lp2312
I146
aI149
aI428
aa(lp2313
I428
aI149
aI429
aa(lp2314
I409
aI408
aI431
aa(lp2315
I431
aI408
aI432
aa(lp2316
I176
aI178
aI434
aa(lp2317
I434
aI178
aI432
aa(lp2318
I435
aI409
aI441
aa(lp2319
I441
aI409
aI431
aa(lp2320
I437
aI440
aI442
aa(lp2321
I442
aI440
aI443
aa(lp2322
I457
aI179
aI445
aa(lp2323
I445
aI179
aI443
aa(lp2324
I331
aI425
aI448
aa(lp2325
I448
aI425
aI424
aa(lp2326
I182
aI331
aI442
aa(lp2327
I442
aI331
aI448
aa(lp2328
I433
aI426
aI434
aa(lp2329
I434
aI426
aI429
aa(lp2330
I172
aI175
aI450
aa(lp2331
I450
aI175
aI451
aa(lp2332
I416
aI419
aI454
aa(lp2333
I454
aI419
aI455
aa(lp2334
I419
aI452
aI455
aa(lp2335
I455
aI452
aI451
aa(lp2336
I427
aI1261
aI428
aa(lp2337
I428
aI1261
aI423
aa(lp2338
I444
aI416
aI445
aa(lp2339
I445
aI416
aI454
aa(lp2340
I449
aI435
aI450
aa(lp2341
I450
aI435
aI441
aa(lp2342
I399
aI447
aI396
aa(lp2343
I396
aI447
aI397
aa(lp2344
I395
aI1261
aI396
aa(lp2345
I396
aI1261
aI400
aa(lp2346
I1261
aI427
aI400
aa(lp2347
I400
aI427
aI402
aa(lp2348
I426
aI433
aI405
aa(lp2349
I405
aI433
aI406
aa(lp2350
I720
aI719
aI410
aa(lp2351
I410
aI719
aI411
aa(lp2352
I449
aI452
aI413
aa(lp2353
I413
aI452
aI414
aa(lp2354
I420
aI456
aI417
aa(lp2355
I417
aI456
aI418
aa(lp2356
I416
aI444
aI417
aa(lp2357
I417
aI444
aI421
aa(lp2358
I763
aI720
aI436
aa(lp2359
I436
aI720
aI410
aa(lp2360
I446
aI721
aI438
aa(lp2361
I438
aI721
aI439
aa(lp2362
I719
aI407
aI411
aa(lp2363
I411
aI407
aI406
aa(lp2364
I403
aI402
aI404
aa(lp2365
I404
aI402
aI405
aa(lp2366
I437
aI398
aI438
aa(lp2367
I438
aI398
aI397
aa(lp2368
I721
aI422
aI439
aa(lp2369
I439
aI422
aI421
aa(lp2370
I452
aI419
aI414
aa(lp2371
I414
aI419
aI418
aa(lp2372
I412
aI763
aI413
aa(lp2373
I413
aI763
aI436
aa(lp2374
I355
aI347
aI377
aa(lp2375
I377
aI347
aI370
aa(lp2376
I377
aI370
aI117
aa(lp2377
I117
aI370
aI119
aa(lp2378
I117
aI119
aI118
aa(lp2379
I118
aI119
aI122
aa(lp2380
I118
aI122
aI1262
aa(lp2381
I1262
aI122
aI125
aa(lp2382
I1263
aI1259
aI1264
aa(lp2383
I1264
aI1259
aI132
aa(lp2384
I131
aI1265
aI132
aa(lp2385
I132
aI1265
aI1264
aa(lp2386
I131
aI385
aI1265
aa(lp2387
I1265
aI385
aI1266
aa(lp2388
I385
aI44
aI1266
aa(lp2389
I1266
aI44
aI1267
aa(lp2390
I47
aI111
aI1268
aa(lp2391
I1268
aI111
aI384
aa(lp2392
I111
aI114
aI384
aa(lp2393
I384
aI114
aI382
aa(lp2394
I382
aI114
aI1269
aa(lp2395
I1269
aI114
aI14
aa(lp2396
I1269
aI14
aI1270
aa(lp2397
I1270
aI14
aI13
aa(lp2398
I365
aI375
aI13
aa(lp2399
I13
aI375
aI1270
aa(lp2400
I375
aI365
aI374
aa(lp2401
I374
aI365
aI16
aa(lp2402
I1262
aI125
aI1263
aa(lp2403
I1263
aI125
aI1259
aa(lp2404
I1268
aI1267
aI47
aa(lp2405
I47
aI1267
aI44
aa(lp2406
I1271
aI1272
aI360
aa(lp2407
I360
aI1272
aI359
aa(lp2408
I378
aI1273
aI379
aa(lp2409
I379
aI1273
aI358
aa(lp2410
I1276
aI1277
aI1275
aa(lp2411
I1275
aI1277
aI1278
aa(lp2412
I1276
aI1279
aI1267
aa(lp2413
I1267
aI1279
aI1266
aa(lp2414
I1280
aI1281
aI1282
aa(lp2415
I1282
aI1281
aI1279
aa(lp2416
I1281
aI1280
aI1283
aa(lp2417
I1283
aI1280
aI1284
aa(lp2418
I1285
aI1263
aI1283
aa(lp2419
I1283
aI1263
aI1264
aa(lp2420
I1287
aI1288
aI1286
aa(lp2421
I1286
aI1288
aI1285
aa(lp2422
I1262
aI1288
aI118
aa(lp2423
I118
aI1288
aI115
aa(lp2424
I383
aI1277
aI384
aa(lp2425
I384
aI1277
aI1268
aa(lp2426
I358
aI357
aI379
aa(lp2427
I379
aI357
aI1289
aa(lp2428
I1289
aI1290
aI379
aa(lp2429
I379
aI1290
aI67
aa(lp2430
I1290
aI1291
aI67
aa(lp2431
I67
aI1291
aI64
aa(lp2432
I1272
aI1292
aI359
aa(lp2433
I359
aI1292
aI380
aa(lp2434
I1292
aI1293
aI380
aa(lp2435
I380
aI1293
aI23
aa(lp2436
I1293
aI1294
aI23
aa(lp2437
I23
aI1294
aI24
aa(lp2438
I1286
aI64
aI1287
aa(lp2439
I1287
aI64
aI1291
aa(lp2440
I1275
aI1278
aI24
aa(lp2441
I24
aI1278
aI25
aa(lp2442
I1282
aI1294
aI1280
aa(lp2443
I1280
aI1294
aI1295
aa(lp2444
I65
aI1284
aI1295
aa(lp2445
I1295
aI1284
aI1280
aa(lp2446
I1295
aI1296
aI65
aa(lp2447
I65
aI1296
aI66
aa(lp2448
I1296
aI1297
aI66
aa(lp2449
I66
aI1297
aI378
aa(lp2450
I1298
aI1299
aI1271
aa(lp2451
I1271
aI1299
aI1272
aa(lp2452
I1297
aI1299
aI378
aa(lp2453
I378
aI1299
aI1273
aa(lp2454
I1273
aI1299
aI1274
aa(lp2455
I1274
aI1299
aI1298
aa(lp2456
I1299
aI1297
aI1272
aa(lp2457
I1272
aI1297
aI1292
aa(lp2458
I1297
aI1296
aI1292
aa(lp2459
I1292
aI1296
aI1293
aa(lp2460
I1296
aI1295
aI1293
aa(lp2461
I1293
aI1295
aI1294
aa(lp2462
I64
aI1286
aI65
aa(lp2463
I65
aI1286
aI1284
aa(lp2464
I1282
aI1275
aI1294
aa(lp2465
I1294
aI1275
aI24
aa(lp2466
I323
aI1300
aI222
aa(lp2467
I222
aI1300
aI223
aa(lp2468
I235
aI238
aI225
aa(lp2469
I225
aI238
aI226
aa(lp2470
I243
aI246
aI230
aa(lp2471
I230
aI246
aI231
aa(lp2472
I228
aI325
aI225
aa(lp2473
I225
aI325
aI273
aa(lp2474
I305
aI302
aI287
aa(lp2475
I287
aI302
aI288
aa(lp2476
I307
aI310
aI294
aa(lp2477
I294
aI310
aI295
aa(lp2478
I242
aI243
aI298
aa(lp2479
I298
aI243
aI230
aa(lp2480
I209
aI212
aI303
aa(lp2481
I303
aI212
aI288
aa(lp2482
I301
aI271
aI303
aa(lp2483
I303
aI271
aI329
aa(lp2484
I257
aI260
aI335
aa(lp2485
I335
aI260
aI336
aa(lp2486
I341
aI239
aI338
aa(lp2487
I338
aI239
aI339
aa(lp2488
I339
aI239
aI298
aa(lp2489
I298
aI239
aI242
aa(lp2490
I221
aI257
aI222
aa(lp2491
I222
aI257
aI335
aa(lp2492
I238
aI341
aI226
aa(lp2493
I226
aI341
aI338
aa(lp2494
I271
aI232
aI329
aa(lp2495
I329
aI232
aI231
aa(lp2496
I1300
aI274
aI223
aa(lp2497
I223
aI274
aI273
aa(lp2498
I293
aI337
aI294
aa(lp2499
I294
aI337
aI336
aa(lp2500
I286
aI296
aI287
aa(lp2501
I287
aI296
aI295
aa(lp2502
I328
aI290
aI210
aa(lp2503
I210
aI290
aI211
aa(lp2504
I156
aI155
aI236
aa(lp2505
I236
aI155
aI237
aa(lp2506
I253
aI284
aI240
aa(lp2507
I240
aI284
aI241
aa(lp2508
I203
aI206
aI244
aa(lp2509
I244
aI206
aI245
aa(lp2510
I293
aI296
aI248
aa(lp2511
I248
aI296
aI249
aa(lp2512
I1300
aI323
aI251
aa(lp2513
I251
aI323
aI252
aa(lp2514
I239
aI341
aI240
aa(lp2515
I240
aI341
aI254
aa(lp2516
I330
aI246
aI256
aa(lp2517
I256
aI246
aI245
aa(lp2518
I284
aI203
aI241
aa(lp2519
I241
aI203
aI244
aa(lp2520
I313
aI156
aI315
aa(lp2521
I315
aI156
aI236
aa(lp2522
I234
aI217
aI322
aa(lp2523
I322
aI217
aI252
aa(lp2524
I274
aI1300
aI315
aa(lp2525
I315
aI1300
aI251
aa(lp2526
I209
aI330
aI210
aa(lp2527
I210
aI330
aI256
aa(lp2528
I155
aI255
aI237
aa(lp2529
I237
aI255
aI254
aa(lp2530
I247
aI326
aI248
aa(lp2531
I248
aI326
aI381
aa(lp2532
I387
aI250
aI386
aa(lp2533
I386
aI250
aI249
aa(lp2534
I290
aI387
aI211
aa(lp2535
I211
aI387
aI386
aa(lp2536
I321
aI337
aI322
aa(lp2537
I322
aI337
aI381
aa(lp2538
I20
aI19
aI133
aa(lp2539
I133
aI19
aI29
aa(lp2540
I123
aI19
aI362
aa(lp2541
I362
aI19
aI18
aa(lp2542
I19
aI123
aI29
aa(lp2543
I29
aI123
aI26
aa(lp2544
I134
aI344
aI135
aa(lp2545
I135
aI344
aI343
aa(lp2546
I94
aI135
aI21
aa(lp2547
I21
aI135
aI18
aa(lp2548
I1290
aI116
aI1291
aa(lp2549
I1291
aI116
aI115
aa(lp2550
I1270
aI375
aI352
aa(lp2551
I352
aI375
aI353
aa(lp2552
I382
aI1269
aI371
aa(lp2553
I371
aI1269
aI372
aa(lp2554
I1269
aI1270
aI372
aa(lp2555
I372
aI1270
aI352
aa(lp2556
I116
aI1290
aI376
aa(lp2557
I376
aI1290
aI1289
aa(lp2558
I376
aI1289
aI356
aa(lp2559
I356
aI1289
aI357
aa(lp2560
I22
aI25
aI371
aa(lp2561
I371
aI25
aI383
aa(lp2562
I1267
aI1268
aI1276
aa(lp2563
I1276
aI1268
aI1277
aa(lp2564
I1275
aI1282
aI1276
aa(lp2565
I1276
aI1282
aI1279
aa(lp2566
I1265
aI1266
aI1281
aa(lp2567
I1281
aI1266
aI1279
aa(lp2568
I1265
aI1281
aI1264
aa(lp2569
I1264
aI1281
aI1283
aa(lp2570
I1286
aI1285
aI1284
aa(lp2571
I1284
aI1285
aI1283
aa(lp2572
I1263
aI1285
aI1262
aa(lp2573
I1262
aI1285
aI1288
aa(lp2574
I1291
aI115
aI1287
aa(lp2575
I1287
aI115
aI1288
aa(lp2576
I25
aI1278
aI383
aa(lp2577
I383
aI1278
aI1277
aas.